(lp0
ccollections
defaultdict
p1
(c__main__
tree
p2
tp3
Rp4
S'cyc_movielens_cyc_bcs'
p5
g1
(g2
tp6
Rp7
I200
g1
(g2
tp8
Rp9
I2000
g1
(g2
tp10
Rp11
I8
g1
(g2
tp12
Rp13
I10
g1
(g2
tp14
Rp15
I0
F2.690723333333333
sI1
F2.6768933333333336
ssI500
g1
(g2
tp16
Rp17
I0
Fnan
sI1
Fnan
sssI16
g1
(g2
tp18
Rp19
I10
g1
(g2
tp20
Rp21
I0
F2.8962233333333334
sI1
F2.86651
ssI500
g1
(g2
tp22
Rp23
I0
Fnan
sI1
Fnan
sssI32
g1
(g2
tp24
Rp25
I10
g1
(g2
tp26
Rp27
I0
F3.2708200000000005
sI1
F3.1397166666666667
ssI500
g1
(g2
tp28
Rp29
I0
Fnan
sI1
Fnan
sssssI50
g1
(g2
tp30
Rp31
I2000
g1
(g2
tp32
Rp33
I8
g1
(g2
tp34
Rp35
I10
g1
(g2
tp36
Rp37
I0
F2.6897866666666665
sI1
F2.677186666666666
ssI500
g1
(g2
tp38
Rp39
I0
Fnan
sI1
Fnan
sssI16
g1
(g2
tp40
Rp41
I10
g1
(g2
tp42
Rp43
I0
F2.898293333333333
sI1
F2.86668
ssI500
g1
(g2
tp44
Rp45
I0
Fnan
sI1
Fnan
sssI32
g1
(g2
tp46
Rp47
I10
g1
(g2
tp48
Rp49
I0
F3.2703
sI1
F3.1394800000000003
ssI500
g1
(g2
tp50
Rp51
I0
Fnan
sI1
Fnan
sssssI150
g1
(g2
tp52
Rp53
I2000
g1
(g2
tp54
Rp55
I8
g1
(g2
tp56
Rp57
I10
g1
(g2
tp58
Rp59
I0
F2.6857466666666667
sI1
F2.676876666666667
ssI500
g1
(g2
tp60
Rp61
I0
Fnan
sI1
Fnan
sssI16
g1
(g2
tp62
Rp63
I10
g1
(g2
tp64
Rp65
I0
F2.8992466666666665
sI1
F2.86626
ssI500
g1
(g2
tp66
Rp67
I0
Fnan
sI1
Fnan
sssI32
g1
(g2
tp68
Rp69
I10
g1
(g2
tp70
Rp71
I0
F3.2724499999999996
sI1
F3.139746666666667
ssI500
g1
(g2
tp72
Rp73
I0
Fnan
sI1
Fnan
ssssssS'cyc_movielens_hog'
p74
g1
(g2
tp75
Rp76
I200
g1
(g2
tp77
Rp78
I2000
g1
(g2
tp79
Rp80
I8
g1
(g2
tp81
Rp82
I10
g1
(g2
tp83
Rp84
I0
F0.7606290000000001
sI1
F0.7609593333333332
ssI500
g1
(g2
tp85
Rp86
I0
Fnan
sI1
Fnan
sssI16
g1
(g2
tp87
Rp88
I10
g1
(g2
tp89
Rp90
I0
F0.7598976666666667
sI1
F0.7597936666666666
ssI500
g1
(g2
tp91
Rp92
I0
Fnan
sI1
Fnan
sssI32
g1
(g2
tp93
Rp94
I10
g1
(g2
tp95
Rp96
I0
F0.760374
sI1
F0.760374
ssI500
g1
(g2
tp97
Rp98
I0
Fnan
sI1
Fnan
sssssI50
g1
(g2
tp99
Rp100
I2000
g1
(g2
tp101
Rp102
I8
g1
(g2
tp103
Rp104
I10
g1
(g2
tp105
Rp106
I0
F0.7603186666666666
sI1
F0.7602613333333333
ssI500
g1
(g2
tp107
Rp108
I0
Fnan
sI1
Fnan
sssI16
g1
(g2
tp109
Rp110
I10
g1
(g2
tp111
Rp112
I0
F0.7599856666666667
sI1
F0.759798
ssI500
g1
(g2
tp113
Rp114
I0
Fnan
sI1
Fnan
sssI32
g1
(g2
tp115
Rp116
I10
g1
(g2
tp117
Rp118
I0
F0.7603363333333334
sI1
F0.7606449999999999
ssI500
g1
(g2
tp119
Rp120
I0
Fnan
sI1
Fnan
sssssI150
g1
(g2
tp121
Rp122
I2000
g1
(g2
tp123
Rp124
I8
g1
(g2
tp125
Rp126
I10
g1
(g2
tp127
Rp128
I0
F0.7606066666666668
sI1
F0.7605633333333334
ssI500
g1
(g2
tp129
Rp130
I0
Fnan
sI1
Fnan
sssI16
g1
(g2
tp131
Rp132
I10
g1
(g2
tp133
Rp134
I0
F0.7599503333333333
sI1
F0.7604893333333332
ssI500
g1
(g2
tp135
Rp136
I0
Fnan
sI1
Fnan
sssI32
g1
(g2
tp137
Rp138
I10
g1
(g2
tp139
Rp140
I0
F0.7603513333333334
sI1
F0.7602503333333334
ssI500
g1
(g2
tp141
Rp142
I0
Fnan
sI1
Fnan
ssssssag1
(g2
tp143
Rp144
g5
g1
(g2
tp145
Rp146
I200
g1
(g2
tp147
Rp148
I2000
g1
(g2
tp149
Rp150
I8
g1
(g2
tp151
Rp152
I10
g1
(g2
tp153
Rp154
I0
F15.608399999999998
sI1
F16.3043
ssI500
g1
(g2
tp155
Rp156
I0
F285.6016666666667
sI1
F295.415
sssI16
g1
(g2
tp157
Rp158
I10
g1
(g2
tp159
Rp160
I0
F12.971233333333332
sI1
F16.185233333333333
ssI500
g1
(g2
tp161
Rp162
I0
F216.89266666666666
sI1
F240.85866666666666
sssI32
g1
(g2
tp163
Rp164
I10
g1
(g2
tp165
Rp166
I0
F8.540563333333333
sI1
F12.178233333333333
ssI500
g1
(g2
tp167
Rp168
I0
F175.23433333333332
sI1
F195.61799999999997
sssssI50
g1
(g2
tp169
Rp170
I2000
g1
(g2
tp171
Rp172
I8
g1
(g2
tp173
Rp174
I10
g1
(g2
tp175
Rp176
I0
F3.9041433333333337
sI1
F4.0500799999999995
ssI500
g1
(g2
tp177
Rp178
I0
F71.40663333333333
sI1
F73.85849999999999
sssI16
g1
(g2
tp179
Rp180
I10
g1
(g2
tp181
Rp182
I0
F3.22423
sI1
F3.8440399999999997
ssI500
g1
(g2
tp183
Rp184
I0
F55.52893333333333
sI1
F60.796400000000006
sssI32
g1
(g2
tp185
Rp186
I10
g1
(g2
tp187
Rp188
I0
F2.17599
sI1
F3.1227
ssI500
g1
(g2
tp189
Rp190
I0
F43.171
sI1
F50.5944
sssssI150
g1
(g2
tp191
Rp192
I2000
g1
(g2
tp193
Rp194
I8
g1
(g2
tp195
Rp196
I10
g1
(g2
tp197
Rp198
I0
F11.681833333333335
sI1
F12.150333333333334
ssI500
g1
(g2
tp199
Rp200
I0
F214.20400000000004
sI1
F221.71033333333335
sssI16
g1
(g2
tp201
Rp202
I10
g1
(g2
tp203
Rp204
I0
F9.657003333333334
sI1
F11.943966666666668
ssI500
g1
(g2
tp205
Rp206
I0
F161.33400000000003
sI1
F181.90966666666668
sssI32
g1
(g2
tp207
Rp208
I10
g1
(g2
tp209
Rp210
I0
F6.710973333333334
sI1
F10.06272
ssI500
g1
(g2
tp211
Rp212
I0
F129.42066666666668
sI1
F153.81633333333335
ssssssg74
g1
(g2
tp213
Rp214
I200
g1
(g2
tp215
Rp216
I2000
g1
(g2
tp217
Rp218
I8
g1
(g2
tp219
Rp220
I10
g1
(g2
tp221
Rp222
I0
F22.122133333333334
sI1
F21.995733333333334
ssI500
g1
(g2
tp223
Rp224
I0
F442.2516666666667
sI1
F442.46566666666666
sssI16
g1
(g2
tp225
Rp226
I10
g1
(g2
tp227
Rp228
I0
F18.001499999999997
sI1
F17.994666666666664
ssI500
g1
(g2
tp229
Rp230
I0
F404.8456666666666
sI1
F395.21133333333336
sssI32
g1
(g2
tp231
Rp232
I10
g1
(g2
tp233
Rp234
I0
F12.287733333333334
sI1
F12.290866666666666
ssI500
g1
(g2
tp235
Rp236
I0
F365.513
sI1
F369.026
sssssI50
g1
(g2
tp237
Rp238
I2000
g1
(g2
tp239
Rp240
I8
g1
(g2
tp241
Rp242
I10
g1
(g2
tp243
Rp244
I0
F5.53798
sI1
F5.547163333333334
ssI500
g1
(g2
tp245
Rp246
I0
F110.74933333333333
sI1
F110.65599999999999
sssI16
g1
(g2
tp247
Rp248
I10
g1
(g2
tp249
Rp250
I0
F4.5015366666666665
sI1
F4.501423333333332
ssI500
g1
(g2
tp251
Rp252
I0
F102.95566666666666
sI1
F101.37419999999999
sssI32
g1
(g2
tp253
Rp254
I10
g1
(g2
tp255
Rp256
I0
F3.082606666666667
sI1
F3.08361
ssI500
g1
(g2
tp257
Rp258
I0
F108.13900000000001
sI1
F102.8999
sssssI150
g1
(g2
tp259
Rp260
I2000
g1
(g2
tp261
Rp262
I8
g1
(g2
tp263
Rp264
I10
g1
(g2
tp265
Rp266
I0
F16.5793
sI1
F16.622166666666665
ssI500
g1
(g2
tp267
Rp268
I0
F332.287
sI1
F332.6076666666667
sssI16
g1
(g2
tp269
Rp270
I10
g1
(g2
tp271
Rp272
I0
F13.5207
sI1
F13.506
ssI500
g1
(g2
tp273
Rp274
I0
F302.1796666666667
sI1
F298.20733333333334
sssI32
g1
(g2
tp275
Rp276
I10
g1
(g2
tp277
Rp278
I0
F9.395566666666666
sI1
F9.228513333333334
ssI500
g1
(g2
tp279
Rp280
I0
F274.41900000000004
sI1
F272.1996666666667
ssssssag1
(g2
tp281
Rp282
g5
g1
(g2
tp283
Rp284
I200
g1
(g2
tp285
Rp286
I2000
g1
(g2
tp287
Rp288
I8
g1
(g2
tp289
Rp290
I10
g1
(g2
tp291
Rp292
I0
F18.14753333333333
sI1
F18.824099999999998
ssI500
g1
(g2
tp293
Rp294
I0
F288.1286666666667
sI1
F297.94599999999997
sssI16
g1
(g2
tp295
Rp296
I10
g1
(g2
tp297
Rp298
I0
F15.847633333333334
sI1
F19.130166666666668
ssI500
g1
(g2
tp299
Rp300
I0
F219.78666666666666
sI1
F243.75199999999998
sssI32
g1
(g2
tp301
Rp302
I10
g1
(g2
tp303
Rp304
I0
F12.225366666666668
sI1
F15.876166666666668
ssI500
g1
(g2
tp305
Rp306
I0
F178.886
sI1
F199.25900000000001
sssssI50
g1
(g2
tp307
Rp308
I2000
g1
(g2
tp309
Rp310
I8
g1
(g2
tp311
Rp312
I10
g1
(g2
tp313
Rp314
I0
F6.410239999999999
sI1
F6.550226666666667
ssI500
g1
(g2
tp315
Rp316
I0
F73.915
sI1
F76.3714
sssI16
g1
(g2
tp317
Rp318
I10
g1
(g2
tp319
Rp320
I0
F6.14825
sI1
F6.72904
ssI500
g1
(g2
tp321
Rp322
I0
F58.402566666666665
sI1
F63.7165
sssI32
g1
(g2
tp323
Rp324
I10
g1
(g2
tp325
Rp326
I0
F5.861203333333333
sI1
F6.754673333333334
ssI500
g1
(g2
tp327
Rp328
I0
F46.85056666666666
sI1
F54.20806666666667
sssssI150
g1
(g2
tp329
Rp330
I2000
g1
(g2
tp331
Rp332
I8
g1
(g2
tp333
Rp334
I10
g1
(g2
tp335
Rp336
I0
F14.186233333333334
sI1
F14.675733333333334
ssI500
g1
(g2
tp337
Rp338
I0
F216.835
sI1
F224.29533333333333
sssI16
g1
(g2
tp339
Rp340
I10
g1
(g2
tp341
Rp342
I0
F12.604999999999999
sI1
F14.827100000000002
ssI500
g1
(g2
tp343
Rp344
I0
F164.25300000000001
sI1
F184.827
sssI32
g1
(g2
tp345
Rp346
I10
g1
(g2
tp347
Rp348
I0
F10.359966666666667
sI1
F13.716833333333332
ssI500
g1
(g2
tp349
Rp350
I0
F133.07366666666667
sI1
F157.43433333333334
ssssssg74
g1
(g2
tp351
Rp352
I200
g1
(g2
tp353
Rp354
I2000
g1
(g2
tp355
Rp356
I8
g1
(g2
tp357
Rp358
I10
g1
(g2
tp359
Rp360
I0
F22.174633333333333
sI1
F22.048666666666673
ssI500
g1
(g2
tp361
Rp362
I0
F442.3043333333333
sI1
F442.5183333333334
sssI16
g1
(g2
tp363
Rp364
I10
g1
(g2
tp365
Rp366
I0
F18.055966666666666
sI1
F18.0495
ssI500
g1
(g2
tp367
Rp368
I0
F404.8996666666667
sI1
F395.2663333333333
sssI32
g1
(g2
tp369
Rp370
I10
g1
(g2
tp371
Rp372
I0
F12.3467
sI1
F12.349433333333332
ssI500
g1
(g2
tp373
Rp374
I0
F365.57099999999997
sI1
F369.08366666666666
sssssI50
g1
(g2
tp375
Rp376
I2000
g1
(g2
tp377
Rp378
I8
g1
(g2
tp379
Rp380
I10
g1
(g2
tp381
Rp382
I0
F5.590503333333333
sI1
F5.599666666666667
ssI500
g1
(g2
tp383
Rp384
I0
F110.80199999999998
sI1
F110.70866666666666
sssI16
g1
(g2
tp385
Rp386
I10
g1
(g2
tp387
Rp388
I0
F4.555706666666667
sI1
F4.555623333333333
ssI500
g1
(g2
tp389
Rp390
I0
F103.00966666666666
sI1
F101.42840000000001
sssI32
g1
(g2
tp391
Rp392
I10
g1
(g2
tp393
Rp394
I0
F3.14073
sI1
F3.14142
ssI500
g1
(g2
tp395
Rp396
I0
F108.19666666666667
sI1
F102.95756666666666
sssssI150
g1
(g2
tp397
Rp398
I2000
g1
(g2
tp399
Rp400
I8
g1
(g2
tp401
Rp402
I10
g1
(g2
tp403
Rp404
I0
F16.6314
sI1
F16.6748
ssI500
g1
(g2
tp405
Rp406
I0
F332.34
sI1
F332.6603333333333
sssI16
g1
(g2
tp407
Rp408
I10
g1
(g2
tp409
Rp410
I0
F13.5754
sI1
F13.560766666666666
ssI500
g1
(g2
tp411
Rp412
I0
F302.23466666666667
sI1
F298.26233333333334
sssI32
g1
(g2
tp413
Rp414
I10
g1
(g2
tp415
Rp416
I0
F9.454123333333333
sI1
F9.287036666666667
ssI500
g1
(g2
tp417
Rp418
I0
F274.47700000000003
sI1
F272.2576666666667
ssssssa.