(lp0
ccollections
defaultdict
p1
(c__main__
tree
p2
tp3
Rp4
S'cyc_movielens_cyc'
p5
g1
(g2
tp6
Rp7
I80
g1
(g2
tp8
Rp9
I2000
g1
(g2
tp10
Rp11
I32
g1
(g2
tp12
Rp13
I200
g1
(g2
tp14
Rp15
I0
F3.41584
sI1
F3.4157
sssI1
g1
(g2
tp16
Rp17
I200
g1
(g2
tp18
Rp19
I0
F3.4157
sI1
F3.4157
sssI2
g1
(g2
tp20
Rp21
I200
g1
(g2
tp22
Rp23
I0
F3.41571
sI1
F3.4157
sssI4
g1
(g2
tp24
Rp25
I200
g1
(g2
tp26
Rp27
I0
F3.4157
sI1
F3.4157
sssI8
g1
(g2
tp28
Rp29
I200
g1
(g2
tp30
Rp31
I0
F3.415725
sI1
F3.4157
sssI10
g1
(g2
tp32
Rp33
I200
g1
(g2
tp34
Rp35
I0
F3.41573
sI1
F3.4157
sssI16
g1
(g2
tp36
Rp37
I200
g1
(g2
tp38
Rp39
I0
F3.41576
sI1
F3.4157
sssssI10
g1
(g2
tp40
Rp41
I2000
g1
(g2
tp42
Rp43
I32
g1
(g2
tp44
Rp45
I200
g1
(g2
tp46
Rp47
I0
F3.57008
sI1
F3.56994
sssI1
g1
(g2
tp48
Rp49
I200
g1
(g2
tp50
Rp51
I0
F3.56994
sI1
F3.56994
sssI2
g1
(g2
tp52
Rp53
I200
g1
(g2
tp54
Rp55
I0
F3.5699449999999997
sI1
F3.56994
sssI4
g1
(g2
tp56
Rp57
I200
g1
(g2
tp58
Rp59
I0
F3.56993
sI1
F3.56994
sssI8
g1
(g2
tp60
Rp61
I200
g1
(g2
tp62
Rp63
I0
F3.56996
sI1
F3.56994
sssI10
g1
(g2
tp64
Rp65
I200
g1
(g2
tp66
Rp67
I0
F3.5699750000000003
sI1
F3.56994
sssI16
g1
(g2
tp68
Rp69
I200
g1
(g2
tp70
Rp71
I0
F3.57
sI1
F3.56994
sssssI100
g1
(g2
tp72
Rp73
I2000
g1
(g2
tp74
Rp75
I32
g1
(g2
tp76
Rp77
I200
g1
(g2
tp78
Rp79
I0
F3.415825
sI1
F3.4157
sssI1
g1
(g2
tp80
Rp81
I200
g1
(g2
tp82
Rp83
I0
F3.4157
sI1
F3.4157
sssI2
g1
(g2
tp84
Rp85
I200
g1
(g2
tp86
Rp87
I0
F3.41571
sI1
F3.4157
sssI4
g1
(g2
tp88
Rp89
I200
g1
(g2
tp90
Rp91
I0
F3.4157
sI1
F3.4157
sssI8
g1
(g2
tp92
Rp93
I200
g1
(g2
tp94
Rp95
I0
F3.41572
sI1
F3.4157
sssI10
g1
(g2
tp96
Rp97
I200
g1
(g2
tp98
Rp99
I0
F3.4157349999999997
sI1
F3.4157
sssI16
g1
(g2
tp100
Rp101
I200
g1
(g2
tp102
Rp103
I0
F3.41576
sI1
F3.4157
sssssI30
g1
(g2
tp104
Rp105
I2000
g1
(g2
tp106
Rp107
I32
g1
(g2
tp108
Rp109
I200
g1
(g2
tp110
Rp111
I0
F3.41746
sI1
F3.41732
sssI1
g1
(g2
tp112
Rp113
I200
g1
(g2
tp114
Rp115
I0
F3.41732
sI1
F3.41732
sssI2
g1
(g2
tp116
Rp117
I200
g1
(g2
tp118
Rp119
I0
F3.41733
sI1
F3.41732
sssI4
g1
(g2
tp120
Rp121
I200
g1
(g2
tp122
Rp123
I0
F3.41732
sI1
F3.41732
sssI8
g1
(g2
tp124
Rp125
I200
g1
(g2
tp126
Rp127
I0
F3.4173549999999997
sI1
F3.41732
sssI10
g1
(g2
tp128
Rp129
I200
g1
(g2
tp130
Rp131
I0
F3.41736
sI1
F3.41732
sssI16
g1
(g2
tp132
Rp133
I200
g1
(g2
tp134
Rp135
I0
F3.41738
sI1
F3.41732
sssssI150
g1
(g2
tp136
Rp137
I2000
g1
(g2
tp138
Rp139
I32
g1
(g2
tp140
Rp141
I200
g1
(g2
tp142
Rp143
I0
F3.41583
sI1
F3.4157
sssI1
g1
(g2
tp144
Rp145
I200
g1
(g2
tp146
Rp147
I0
F3.4157
sI1
F3.4157
sssI2
g1
(g2
tp148
Rp149
I200
g1
(g2
tp150
Rp151
I0
F3.41571
sI1
F3.4157
sssI4
g1
(g2
tp152
Rp153
I200
g1
(g2
tp154
Rp155
I0
F3.4156950000000004
sI1
F3.4157
sssI8
g1
(g2
tp156
Rp157
I200
g1
(g2
tp158
Rp159
I0
F3.415725
sI1
F3.4157
sssI10
g1
(g2
tp160
Rp161
I200
g1
(g2
tp162
Rp163
I0
F3.41573
sI1
F3.4157
sssI16
g1
(g2
tp164
Rp165
I200
g1
(g2
tp166
Rp167
I0
F3.415755
sI1
F3.4157
ssssssS'cyc_movielens_hog'
p168
g1
(g2
tp169
Rp170
I80
g1
(g2
tp171
Rp172
I2000
g1
(g2
tp173
Rp174
I32
g1
(g2
tp175
Rp176
I200
g1
(g2
tp177
Rp178
I0
F3.41576
sI1
F3.41577
sssI1
g1
(g2
tp179
Rp180
I200
g1
(g2
tp181
Rp182
I0
F3.4157
sI1
F3.4157
sssI2
g1
(g2
tp183
Rp184
I200
g1
(g2
tp185
Rp186
I0
F3.41551
sI1
F3.41551
sssI4
g1
(g2
tp187
Rp188
I200
g1
(g2
tp189
Rp190
I0
F3.41535
sI1
F3.41535
sssI8
g1
(g2
tp191
Rp192
I200
g1
(g2
tp193
Rp194
I0
F3.415585
sI1
F3.41559
sssI10
g1
(g2
tp195
Rp196
I200
g1
(g2
tp197
Rp198
I0
F3.41567
sI1
F3.41567
sssI16
g1
(g2
tp199
Rp200
I200
g1
(g2
tp201
Rp202
I0
F3.41554
sI1
F3.41554
sssssI10
g1
(g2
tp203
Rp204
I2000
g1
(g2
tp205
Rp206
I32
g1
(g2
tp207
Rp208
I200
g1
(g2
tp209
Rp210
I0
F3.56995
sI1
F3.569955
sssI1
g1
(g2
tp211
Rp212
I200
g1
(g2
tp213
Rp214
I0
F3.56994
sI1
F3.56994
sssI2
g1
(g2
tp215
Rp216
I200
g1
(g2
tp217
Rp218
I0
F3.56973
sI1
F3.56973
sssI4
g1
(g2
tp219
Rp220
I200
g1
(g2
tp221
Rp222
I0
F3.569565
sI1
F3.56956
sssI8
g1
(g2
tp223
Rp224
I200
g1
(g2
tp225
Rp226
I0
F3.569795
sI1
F3.56979
sssI10
g1
(g2
tp227
Rp228
I200
g1
(g2
tp229
Rp230
I0
F3.56991
sI1
F3.569915
sssI16
g1
(g2
tp231
Rp232
I200
g1
(g2
tp233
Rp234
I0
F3.56974
sI1
F3.56974
sssssI100
g1
(g2
tp235
Rp236
I2000
g1
(g2
tp237
Rp238
I32
g1
(g2
tp239
Rp240
I200
g1
(g2
tp241
Rp242
I0
F3.415755
sI1
F3.415755
sssI1
g1
(g2
tp243
Rp244
I200
g1
(g2
tp245
Rp246
I0
F3.4157
sI1
F3.4157
sssI2
g1
(g2
tp247
Rp248
I200
g1
(g2
tp249
Rp250
I0
F3.415505
sI1
F3.4155
sssI4
g1
(g2
tp251
Rp252
I200
g1
(g2
tp253
Rp254
I0
F3.41535
sI1
F3.41535
sssI8
g1
(g2
tp255
Rp256
I200
g1
(g2
tp257
Rp258
I0
F3.415585
sI1
F3.41559
sssI10
g1
(g2
tp259
Rp260
I200
g1
(g2
tp261
Rp262
I0
F3.41567
sI1
F3.41567
sssI16
g1
(g2
tp263
Rp264
I200
g1
(g2
tp265
Rp266
I0
F3.41554
sI1
F3.41554
sssssI30
g1
(g2
tp267
Rp268
I2000
g1
(g2
tp269
Rp270
I32
g1
(g2
tp271
Rp272
I200
g1
(g2
tp273
Rp274
I0
F3.4173850000000003
sI1
F3.417395
sssI1
g1
(g2
tp275
Rp276
I200
g1
(g2
tp277
Rp278
I0
F3.41732
sI1
F3.41732
sssI2
g1
(g2
tp279
Rp280
I200
g1
(g2
tp281
Rp282
I0
F3.41713
sI1
F3.41713
sssI4
g1
(g2
tp283
Rp284
I200
g1
(g2
tp285
Rp286
I0
F3.41698
sI1
F3.41698
sssI8
g1
(g2
tp287
Rp288
I200
g1
(g2
tp289
Rp290
I0
F3.4172149999999997
sI1
F3.41722
sssI10
g1
(g2
tp291
Rp292
I200
g1
(g2
tp293
Rp294
I0
F3.4173
sI1
F3.4173
sssI16
g1
(g2
tp295
Rp296
I200
g1
(g2
tp297
Rp298
I0
F3.41716
sI1
F3.417165
sssssI150
g1
(g2
tp299
Rp300
I2000
g1
(g2
tp301
Rp302
I32
g1
(g2
tp303
Rp304
I200
g1
(g2
tp305
Rp306
I0
F3.41576
sI1
F3.415755
sssI1
g1
(g2
tp307
Rp308
I200
g1
(g2
tp309
Rp310
I0
F3.4157
sI1
F3.4157
sssI2
g1
(g2
tp311
Rp312
I200
g1
(g2
tp313
Rp314
I0
F3.415505
sI1
F3.415505
sssI4
g1
(g2
tp315
Rp316
I200
g1
(g2
tp317
Rp318
I0
F3.415355
sI1
F3.415355
sssI8
g1
(g2
tp319
Rp320
I200
g1
(g2
tp321
Rp322
I0
F3.41559
sI1
F3.41559
sssI10
g1
(g2
tp323
Rp324
I200
g1
(g2
tp325
Rp326
I0
F3.41567
sI1
F3.41567
sssI16
g1
(g2
tp327
Rp328
I200
g1
(g2
tp329
Rp330
I0
F3.41553
sI1
F3.41554
ssssssag1
(g2
tp331
Rp332
g5
g1
(g2
tp333
Rp334
I80
g1
(g2
tp335
Rp336
I2000
g1
(g2
tp337
Rp338
I32
g1
(g2
tp339
Rp340
I200
g1
(g2
tp341
Rp342
I0
F66.17835
sI1
F74.6978
sssI1
g1
(g2
tp343
Rp344
I200
g1
(g2
tp345
Rp346
I0
F376.2135
sI1
F379.28549999999996
sssI2
g1
(g2
tp347
Rp348
I200
g1
(g2
tp349
Rp350
I0
F218.4155
sI1
F210.367
sssI4
g1
(g2
tp351
Rp352
I200
g1
(g2
tp353
Rp354
I0
F118.22550000000001
sI1
F114.958
sssI8
g1
(g2
tp355
Rp356
I200
g1
(g2
tp357
Rp358
I0
F64.34585
sI1
F62.90495
sssI10
g1
(g2
tp359
Rp360
I200
g1
(g2
tp361
Rp362
I0
F53.87525
sI1
F52.4677
sssI16
g1
(g2
tp363
Rp364
I200
g1
(g2
tp365
Rp366
I0
F38.4075
sI1
F38.5404
sssssI10
g1
(g2
tp367
Rp368
I2000
g1
(g2
tp369
Rp370
I32
g1
(g2
tp371
Rp372
I200
g1
(g2
tp373
Rp374
I0
F8.320519999999998
sI1
F9.154045
sssI1
g1
(g2
tp375
Rp376
I200
g1
(g2
tp377
Rp378
I0
F46.50445
sI1
F46.9793
sssI2
g1
(g2
tp379
Rp380
I200
g1
(g2
tp381
Rp382
I0
F27.05525
sI1
F26.4533
sssI4
g1
(g2
tp383
Rp384
I200
g1
(g2
tp385
Rp386
I0
F14.77545
sI1
F14.413599999999999
sssI8
g1
(g2
tp387
Rp388
I200
g1
(g2
tp389
Rp390
I0
F8.07938
sI1
F7.903205
sssI10
g1
(g2
tp391
Rp392
I200
g1
(g2
tp393
Rp394
I0
F6.804775
sI1
F6.58327
sssI16
g1
(g2
tp395
Rp396
I200
g1
(g2
tp397
Rp398
I0
F4.75985
sI1
F4.798225
sssssI100
g1
(g2
tp399
Rp400
I2000
g1
(g2
tp401
Rp402
I32
g1
(g2
tp403
Rp404
I200
g1
(g2
tp405
Rp406
I0
F82.6489
sI1
F93.2227
sssI1
g1
(g2
tp407
Rp408
I200
g1
(g2
tp409
Rp410
I0
F470.3945
sI1
F474.33950000000004
sssI2
g1
(g2
tp411
Rp412
I200
g1
(g2
tp413
Rp414
I0
F271.2895
sI1
F264.22249999999997
sssI4
g1
(g2
tp415
Rp416
I200
g1
(g2
tp417
Rp418
I0
F148.494
sI1
F143.75150000000002
sssI8
g1
(g2
tp419
Rp420
I200
g1
(g2
tp421
Rp422
I0
F80.60489999999999
sI1
F78.6286
sssI10
g1
(g2
tp423
Rp424
I200
g1
(g2
tp425
Rp426
I0
F67.82455
sI1
F65.5729
sssI16
g1
(g2
tp427
Rp428
I200
g1
(g2
tp429
Rp430
I0
F47.97355
sI1
F48.2416
sssssI30
g1
(g2
tp431
Rp432
I2000
g1
(g2
tp433
Rp434
I32
g1
(g2
tp435
Rp436
I200
g1
(g2
tp437
Rp438
I0
F24.932699999999997
sI1
F27.8659
sssI1
g1
(g2
tp439
Rp440
I200
g1
(g2
tp441
Rp442
I0
F141.1625
sI1
F142.2175
sssI2
g1
(g2
tp443
Rp444
I200
g1
(g2
tp445
Rp446
I0
F81.89295
sI1
F79.57065
sssI4
g1
(g2
tp447
Rp448
I200
g1
(g2
tp449
Rp450
I0
F44.6695
sI1
F43.16485
sssI8
g1
(g2
tp451
Rp452
I200
g1
(g2
tp453
Rp454
I0
F24.3843
sI1
F23.621450000000003
sssI10
g1
(g2
tp455
Rp456
I200
g1
(g2
tp457
Rp458
I0
F20.22415
sI1
F19.709
sssI16
g1
(g2
tp459
Rp460
I200
g1
(g2
tp461
Rp462
I0
F14.36335
sI1
F14.46415
sssssI150
g1
(g2
tp463
Rp464
I2000
g1
(g2
tp465
Rp466
I32
g1
(g2
tp467
Rp468
I200
g1
(g2
tp469
Rp470
I0
F124.07249999999999
sI1
F140.498
sssI1
g1
(g2
tp471
Rp472
I200
g1
(g2
tp473
Rp474
I0
F705.642
sI1
F711.503
sssI2
g1
(g2
tp475
Rp476
I200
g1
(g2
tp477
Rp478
I0
F406.977
sI1
F395.83349999999996
sssI4
g1
(g2
tp479
Rp480
I200
g1
(g2
tp481
Rp482
I0
F222.8125
sI1
F215.4895
sssI8
g1
(g2
tp483
Rp484
I200
g1
(g2
tp485
Rp486
I0
F120.717
sI1
F117.9425
sssI10
g1
(g2
tp487
Rp488
I200
g1
(g2
tp489
Rp490
I0
F100.5835
sI1
F98.3401
sssI16
g1
(g2
tp491
Rp492
I200
g1
(g2
tp493
Rp494
I0
F71.9827
sI1
F72.36875
ssssssg168
g1
(g2
tp495
Rp496
I80
g1
(g2
tp497
Rp498
I2000
g1
(g2
tp499
Rp500
I32
g1
(g2
tp501
Rp502
I200
g1
(g2
tp503
Rp504
I0
F78.32990000000001
sI1
F78.3206
sssI1
g1
(g2
tp505
Rp506
I200
g1
(g2
tp507
Rp508
I0
F389.38649999999996
sI1
F389.442
sssI2
g1
(g2
tp509
Rp510
I200
g1
(g2
tp511
Rp512
I0
F232.4375
sI1
F232.373
sssI4
g1
(g2
tp513
Rp514
I200
g1
(g2
tp515
Rp516
I0
F131.5115
sI1
F131.002
sssI8
g1
(g2
tp517
Rp518
I200
g1
(g2
tp519
Rp520
I0
F72.95485
sI1
F72.7409
sssI10
g1
(g2
tp521
Rp522
I200
g1
(g2
tp523
Rp524
I0
F61.273700000000005
sI1
F60.89545
sssI16
g1
(g2
tp525
Rp526
I200
g1
(g2
tp527
Rp528
I0
F43.21855
sI1
F43.27760000000001
sssssI10
g1
(g2
tp529
Rp530
I2000
g1
(g2
tp531
Rp532
I32
g1
(g2
tp533
Rp534
I200
g1
(g2
tp535
Rp536
I0
F9.890574999999998
sI1
F9.838059999999999
sssI1
g1
(g2
tp537
Rp538
I200
g1
(g2
tp539
Rp540
I0
F48.663650000000004
sI1
F48.64485
sssI2
g1
(g2
tp541
Rp542
I200
g1
(g2
tp543
Rp544
I0
F28.824399999999997
sI1
F28.7637
sssI4
g1
(g2
tp545
Rp546
I200
g1
(g2
tp547
Rp548
I0
F16.4428
sI1
F16.375549999999997
sssI8
g1
(g2
tp549
Rp550
I200
g1
(g2
tp551
Rp552
I0
F9.124015
sI1
F9.142145
sssI10
g1
(g2
tp553
Rp554
I200
g1
(g2
tp555
Rp556
I0
F7.6683
sI1
F7.673245
sssI16
g1
(g2
tp557
Rp558
I200
g1
(g2
tp559
Rp560
I0
F5.381220000000001
sI1
F5.37272
sssssI100
g1
(g2
tp561
Rp562
I2000
g1
(g2
tp563
Rp564
I32
g1
(g2
tp565
Rp566
I200
g1
(g2
tp567
Rp568
I0
F97.86449999999999
sI1
F97.8837
sssI1
g1
(g2
tp569
Rp570
I200
g1
(g2
tp571
Rp572
I0
F487.025
sI1
F486.863
sssI2
g1
(g2
tp573
Rp574
I200
g1
(g2
tp575
Rp576
I0
F292.17
sI1
F290.651
sssI4
g1
(g2
tp577
Rp578
I200
g1
(g2
tp579
Rp580
I0
F163.731
sI1
F163.649
sssI8
g1
(g2
tp581
Rp582
I200
g1
(g2
tp583
Rp584
I0
F91.329
sI1
F91.06905
sssI10
g1
(g2
tp585
Rp586
I200
g1
(g2
tp587
Rp588
I0
F76.185
sI1
F76.321
sssI16
g1
(g2
tp589
Rp590
I200
g1
(g2
tp591
Rp592
I0
F54.0099
sI1
F54.154399999999995
sssssI30
g1
(g2
tp593
Rp594
I2000
g1
(g2
tp595
Rp596
I32
g1
(g2
tp597
Rp598
I200
g1
(g2
tp599
Rp600
I0
F29.69925
sI1
F29.45635
sssI1
g1
(g2
tp601
Rp602
I200
g1
(g2
tp603
Rp604
I0
F146.0045
sI1
F146.063
sssI2
g1
(g2
tp605
Rp606
I200
g1
(g2
tp607
Rp608
I0
F87.1167
sI1
F87.0842
sssI4
g1
(g2
tp609
Rp610
I200
g1
(g2
tp611
Rp612
I0
F49.1226
sI1
F49.17285
sssI8
g1
(g2
tp613
Rp614
I200
g1
(g2
tp615
Rp616
I0
F27.299750000000003
sI1
F27.3261
sssI10
g1
(g2
tp617
Rp618
I200
g1
(g2
tp619
Rp620
I0
F22.92705
sI1
F22.9197
sssI16
g1
(g2
tp621
Rp622
I200
g1
(g2
tp623
Rp624
I0
F16.193849999999998
sI1
F16.245800000000003
sssssI150
g1
(g2
tp625
Rp626
I2000
g1
(g2
tp627
Rp628
I32
g1
(g2
tp629
Rp630
I200
g1
(g2
tp631
Rp632
I0
F146.9135
sI1
F146.814
sssI1
g1
(g2
tp633
Rp634
I200
g1
(g2
tp635
Rp636
I0
F730.7635
sI1
F730.261
sssI2
g1
(g2
tp637
Rp638
I200
g1
(g2
tp639
Rp640
I0
F438.4075
sI1
F435.8895
sssI4
g1
(g2
tp641
Rp642
I200
g1
(g2
tp643
Rp644
I0
F245.74
sI1
F245.6515
sssI8
g1
(g2
tp645
Rp646
I200
g1
(g2
tp647
Rp648
I0
F136.8025
sI1
F136.2765
sssI10
g1
(g2
tp649
Rp650
I200
g1
(g2
tp651
Rp652
I0
F114.079
sI1
F114.0075
sssI16
g1
(g2
tp653
Rp654
I200
g1
(g2
tp655
Rp656
I0
F81.0857
sI1
F81.73984999999999
ssssssag1
(g2
tp657
Rp658
g5
g1
(g2
tp659
Rp660
I80
g1
(g2
tp661
Rp662
I2000
g1
(g2
tp663
Rp664
I32
g1
(g2
tp665
Rp666
I200
g1
(g2
tp667
Rp668
I0
F68.8252
sI1
F77.3144
sssI1
g1
(g2
tp669
Rp670
I200
g1
(g2
tp671
Rp672
I0
F378.5795
sI1
F381.642
sssI2
g1
(g2
tp673
Rp674
I200
g1
(g2
tp675
Rp676
I0
F220.85899999999998
sI1
F212.7965
sssI4
g1
(g2
tp677
Rp678
I200
g1
(g2
tp679
Rp680
I0
F120.6845
sI1
F117.4185
sssI8
g1
(g2
tp681
Rp682
I200
g1
(g2
tp683
Rp684
I0
F66.85155
sI1
F65.3956
sssI10
g1
(g2
tp685
Rp686
I200
g1
(g2
tp687
Rp688
I0
F56.418099999999995
sI1
F54.98795
sssI16
g1
(g2
tp689
Rp690
I200
g1
(g2
tp691
Rp692
I0
F40.9659
sI1
F41.083650000000006
sssssI10
g1
(g2
tp693
Rp694
I2000
g1
(g2
tp695
Rp696
I32
g1
(g2
tp697
Rp698
I200
g1
(g2
tp699
Rp700
I0
F10.95655
sI1
F11.7887
sssI1
g1
(g2
tp701
Rp702
I200
g1
(g2
tp703
Rp704
I0
F48.903499999999994
sI1
F49.35215
sssI2
g1
(g2
tp705
Rp706
I200
g1
(g2
tp707
Rp708
I0
F29.4956
sI1
F28.91
sssI4
g1
(g2
tp709
Rp710
I200
g1
(g2
tp711
Rp712
I0
F17.226950000000002
sI1
F16.86515
sssI8
g1
(g2
tp713
Rp714
I200
g1
(g2
tp715
Rp716
I0
F10.5577
sI1
F10.38005
sssI10
g1
(g2
tp717
Rp718
I200
g1
(g2
tp719
Rp720
I0
F9.34022
sI1
F9.105535
sssI16
g1
(g2
tp721
Rp722
I200
g1
(g2
tp723
Rp724
I0
F7.29789
sI1
F7.3681
sssssI100
g1
(g2
tp725
Rp726
I2000
g1
(g2
tp727
Rp728
I32
g1
(g2
tp729
Rp730
I200
g1
(g2
tp731
Rp732
I0
F85.28524999999999
sI1
F95.84405000000001
sssI1
g1
(g2
tp733
Rp734
I200
g1
(g2
tp735
Rp736
I0
F472.755
sI1
F476.707
sssI2
g1
(g2
tp737
Rp738
I200
g1
(g2
tp739
Rp740
I0
F273.76800000000003
sI1
F266.6665
sssI4
g1
(g2
tp741
Rp742
I200
g1
(g2
tp743
Rp744
I0
F150.94
sI1
F146.1945
sssI8
g1
(g2
tp745
Rp746
I200
g1
(g2
tp747
Rp748
I0
F83.10645
sI1
F81.13575
sssI10
g1
(g2
tp749
Rp750
I200
g1
(g2
tp751
Rp752
I0
F70.36345
sI1
F68.08995
sssI16
g1
(g2
tp753
Rp754
I200
g1
(g2
tp755
Rp756
I0
F50.5043
sI1
F50.78655
sssssI30
g1
(g2
tp757
Rp758
I2000
g1
(g2
tp759
Rp760
I32
g1
(g2
tp761
Rp762
I200
g1
(g2
tp763
Rp764
I0
F27.58575
sI1
F30.497700000000002
sssI1
g1
(g2
tp765
Rp766
I200
g1
(g2
tp767
Rp768
I0
F143.52100000000002
sI1
F144.5785
sssI2
g1
(g2
tp769
Rp770
I200
g1
(g2
tp771
Rp772
I0
F84.3349
sI1
F82.01325
sssI4
g1
(g2
tp773
Rp774
I200
g1
(g2
tp775
Rp776
I0
F47.12375
sI1
F45.6202
sssI8
g1
(g2
tp777
Rp778
I200
g1
(g2
tp779
Rp780
I0
F26.88095
sI1
F26.11335
sssI10
g1
(g2
tp781
Rp782
I200
g1
(g2
tp783
Rp784
I0
F22.7624
sI1
F22.2218
sssI16
g1
(g2
tp785
Rp786
I200
g1
(g2
tp787
Rp788
I0
F16.90225
sI1
F16.9961
sssssI150
g1
(g2
tp789
Rp790
I2000
g1
(g2
tp791
Rp792
I32
g1
(g2
tp793
Rp794
I200
g1
(g2
tp795
Rp796
I0
F126.705
sI1
F143.119
sssI1
g1
(g2
tp797
Rp798
I200
g1
(g2
tp799
Rp800
I0
F707.9884999999999
sI1
F713.8855
sssI2
g1
(g2
tp801
Rp802
I200
g1
(g2
tp803
Rp804
I0
F409.414
sI1
F398.28499999999997
sssI4
g1
(g2
tp805
Rp806
I200
g1
(g2
tp807
Rp808
I0
F225.274
sI1
F217.941
sssI8
g1
(g2
tp809
Rp810
I200
g1
(g2
tp811
Rp812
I0
F123.197
sI1
F120.46000000000001
sssI10
g1
(g2
tp813
Rp814
I200
g1
(g2
tp815
Rp816
I0
F103.107
sI1
F100.859
sssI16
g1
(g2
tp817
Rp818
I200
g1
(g2
tp819
Rp820
I0
F74.51825
sI1
F74.90415
ssssssg168
g1
(g2
tp821
Rp822
I80
g1
(g2
tp823
Rp824
I2000
g1
(g2
tp825
Rp826
I32
g1
(g2
tp827
Rp828
I200
g1
(g2
tp829
Rp830
I0
F78.41745
sI1
F78.41155
sssI1
g1
(g2
tp831
Rp832
I200
g1
(g2
tp833
Rp834
I0
F389.4735
sI1
F389.528
sssI2
g1
(g2
tp835
Rp836
I200
g1
(g2
tp837
Rp838
I0
F232.5245
sI1
F232.4595
sssI4
g1
(g2
tp839
Rp840
I200
g1
(g2
tp841
Rp842
I0
F131.598
sI1
F131.0895
sssI8
g1
(g2
tp843
Rp844
I200
g1
(g2
tp845
Rp846
I0
F73.04214999999999
sI1
F72.8284
sssI10
g1
(g2
tp847
Rp848
I200
g1
(g2
tp849
Rp850
I0
F61.3615
sI1
F60.982600000000005
sssI16
g1
(g2
tp851
Rp852
I200
g1
(g2
tp853
Rp854
I0
F43.3081
sI1
F43.36865
sssssI10
g1
(g2
tp855
Rp856
I2000
g1
(g2
tp857
Rp858
I32
g1
(g2
tp859
Rp860
I200
g1
(g2
tp861
Rp862
I0
F9.978439999999999
sI1
F9.92622
sssI1
g1
(g2
tp863
Rp864
I200
g1
(g2
tp865
Rp866
I0
F48.7496
sI1
F48.730850000000004
sssI2
g1
(g2
tp867
Rp868
I200
g1
(g2
tp869
Rp870
I0
F28.9111
sI1
F28.8508
sssI4
g1
(g2
tp871
Rp872
I200
g1
(g2
tp873
Rp874
I0
F16.52945
sI1
F16.462249999999997
sssI8
g1
(g2
tp875
Rp876
I200
g1
(g2
tp877
Rp878
I0
F9.211125
sI1
F9.22918
sssI10
g1
(g2
tp879
Rp880
I200
g1
(g2
tp881
Rp882
I0
F7.755955
sI1
F7.760605
sssI16
g1
(g2
tp883
Rp884
I200
g1
(g2
tp885
Rp886
I0
F5.471825
sI1
F5.461575
sssssI100
g1
(g2
tp887
Rp888
I2000
g1
(g2
tp889
Rp890
I32
g1
(g2
tp891
Rp892
I200
g1
(g2
tp893
Rp894
I0
F97.95230000000001
sI1
F97.97165000000001
sssI1
g1
(g2
tp895
Rp896
I200
g1
(g2
tp897
Rp898
I0
F487.111
sI1
F486.9495
sssI2
g1
(g2
tp899
Rp900
I200
g1
(g2
tp901
Rp902
I0
F292.256
sI1
F290.738
sssI4
g1
(g2
tp903
Rp904
I200
g1
(g2
tp905
Rp906
I0
F163.8175
sI1
F163.736
sssI8
g1
(g2
tp907
Rp908
I200
g1
(g2
tp909
Rp910
I0
F91.41669999999999
sI1
F91.15625
sssI10
g1
(g2
tp911
Rp912
I200
g1
(g2
tp913
Rp914
I0
F76.27244999999999
sI1
F76.4079
sssI16
g1
(g2
tp915
Rp916
I200
g1
(g2
tp917
Rp918
I0
F54.09905
sI1
F54.24365
sssssI30
g1
(g2
tp919
Rp920
I2000
g1
(g2
tp921
Rp922
I32
g1
(g2
tp923
Rp924
I200
g1
(g2
tp925
Rp926
I0
F29.79015
sI1
F29.5442
sssI1
g1
(g2
tp927
Rp928
I200
g1
(g2
tp929
Rp930
I0
F146.0915
sI1
F146.15
sssI2
g1
(g2
tp931
Rp932
I200
g1
(g2
tp933
Rp934
I0
F87.2035
sI1
F87.17060000000001
sssI4
g1
(g2
tp935
Rp936
I200
g1
(g2
tp937
Rp938
I0
F49.2093
sI1
F49.25985
sssI8
g1
(g2
tp939
Rp940
I200
g1
(g2
tp941
Rp942
I0
F27.3868
sI1
F27.41285
sssI10
g1
(g2
tp943
Rp944
I200
g1
(g2
tp945
Rp946
I0
F23.014200000000002
sI1
F23.0073
sssI16
g1
(g2
tp947
Rp948
I200
g1
(g2
tp949
Rp950
I0
F16.2825
sI1
F16.334650000000003
sssssI150
g1
(g2
tp951
Rp952
I2000
g1
(g2
tp953
Rp954
I32
g1
(g2
tp955
Rp956
I200
g1
(g2
tp957
Rp958
I0
F147.002
sI1
F146.902
sssI1
g1
(g2
tp959
Rp960
I200
g1
(g2
tp961
Rp962
I0
F730.8530000000001
sI1
F730.348
sssI2
g1
(g2
tp963
Rp964
I200
g1
(g2
tp965
Rp966
I0
F438.4945
sI1
F435.976
sssI4
g1
(g2
tp967
Rp968
I200
g1
(g2
tp969
Rp970
I0
F245.8275
sI1
F245.739
sssI8
g1
(g2
tp971
Rp972
I200
g1
(g2
tp973
Rp974
I0
F136.8895
sI1
F136.364
sssI10
g1
(g2
tp975
Rp976
I200
g1
(g2
tp977
Rp978
I0
F114.167
sI1
F114.09899999999999
sssI16
g1
(g2
tp979
Rp980
I200
g1
(g2
tp981
Rp982
I0
F81.17500000000001
sI1
F81.82894999999999
ssssssa.