(lp0
ccollections
defaultdict
p1
(c__main__
tree
p2
tp3
Rp4
S'cyc_movielens_cyc'
p5
g1
(g2
tp6
Rp7
I200
g1
(g2
tp8
Rp9
I2000
g1
(g2
tp10
Rp11
I8
g1
(g2
tp12
Rp13
I200
g1
(g2
tp14
Rp15
I0
F1.638825
sI1
F1.63875
ssI500
g1
(g2
tp16
Rp17
I0
F1.895225
sI1
F1.89521
ssI10
g1
(g2
tp18
Rp19
I0
F1.034235
sI1
F1.03421
ssI100
g1
(g2
tp20
Rp21
I0
F1.31555
sI1
F1.31552
sssI1
g1
(g2
tp22
Rp23
I200
g1
(g2
tp24
Rp25
I0
F1.63875
sI1
F1.63875
ssI500
g1
(g2
tp26
Rp27
I0
F1.89521
sI1
F1.89521
ssI10
g1
(g2
tp28
Rp29
I0
F1.03421
sI1
F1.03421
ssI100
g1
(g2
tp30
Rp31
I0
F1.31552
sI1
F1.31552
sssI16
g1
(g2
tp32
Rp33
I200
g1
(g2
tp34
Rp35
I0
F1.638975
sI1
F1.63875
ssI500
g1
(g2
tp36
Rp37
I0
F1.89515
sI1
F1.89521
ssI10
g1
(g2
tp38
Rp39
I0
F1.03424
sI1
F1.03421
ssI100
g1
(g2
tp40
Rp41
I0
F1.31562
sI1
F1.31552
sssI32
g1
(g2
tp42
Rp43
I200
g1
(g2
tp44
Rp45
I0
F1.638805
sI1
F1.63875
ssI500
g1
(g2
tp46
Rp47
I0
F1.8953799999999998
sI1
F1.89521
ssI10
g1
(g2
tp48
Rp49
I0
F1.03425
sI1
F1.03421
ssI100
g1
(g2
tp50
Rp51
I0
F1.31563
sI1
F1.31552
sssssI10
g1
(g2
tp52
Rp53
I2000
g1
(g2
tp54
Rp55
I8
g1
(g2
tp56
Rp57
I200
g1
(g2
tp58
Rp59
I0
F2.433185
sI1
F2.43315
ssI500
g1
(g2
tp60
Rp61
I0
F3.387645
sI1
F3.38766
ssI10
g1
(g2
tp62
Rp63
I0
F1.25305
sI1
F1.25295
ssI100
g1
(g2
tp64
Rp65
I0
F1.724155
sI1
F1.72412
sssI1
g1
(g2
tp66
Rp67
I200
g1
(g2
tp68
Rp69
I0
F2.43315
sI1
F2.43315
ssI500
g1
(g2
tp70
Rp71
I0
F3.38766
sI1
F3.38766
ssI10
g1
(g2
tp72
Rp73
I0
F1.25295
sI1
F1.25295
ssI100
g1
(g2
tp74
Rp75
I0
F1.72412
sI1
F1.72412
sssI16
g1
(g2
tp76
Rp77
I200
g1
(g2
tp78
Rp79
I0
F2.433325
sI1
F2.43315
ssI500
g1
(g2
tp80
Rp81
I0
F3.387505
sI1
F3.38766
ssI10
g1
(g2
tp82
Rp83
I0
F1.25307
sI1
F1.25295
ssI100
g1
(g2
tp84
Rp85
I0
F1.72424
sI1
F1.72412
sssI32
g1
(g2
tp86
Rp87
I200
g1
(g2
tp88
Rp89
I0
F2.43321
sI1
F2.43315
ssI500
g1
(g2
tp90
Rp91
I0
F3.38818
sI1
F3.38766
ssI10
g1
(g2
tp92
Rp93
I0
F1.2531
sI1
F1.25295
ssI100
g1
(g2
tp94
Rp95
I0
F1.724235
sI1
F1.72412
sssssI50
g1
(g2
tp96
Rp97
I2000
g1
(g2
tp98
Rp99
I8
g1
(g2
tp100
Rp101
I200
g1
(g2
tp102
Rp103
I0
F1.710775
sI1
F1.7107
ssI500
g1
(g2
tp104
Rp105
I0
F1.992865
sI1
F1.99285
ssI10
g1
(g2
tp106
Rp107
I0
F1.04838
sI1
F1.04835
ssI100
g1
(g2
tp108
Rp109
I0
F1.34735
sI1
F1.34732
sssI1
g1
(g2
tp110
Rp111
I200
g1
(g2
tp112
Rp113
I0
F1.7107
sI1
F1.7107
ssI500
g1
(g2
tp114
Rp115
I0
F1.99285
sI1
F1.99285
ssI10
g1
(g2
tp116
Rp117
I0
F1.04835
sI1
F1.04835
ssI100
g1
(g2
tp118
Rp119
I0
F1.34732
sI1
F1.34732
sssI16
g1
(g2
tp120
Rp121
I200
g1
(g2
tp122
Rp123
I0
F1.710935
sI1
F1.7107
ssI500
g1
(g2
tp124
Rp125
I0
F1.992765
sI1
F1.99285
ssI10
g1
(g2
tp126
Rp127
I0
F1.04839
sI1
F1.04835
ssI100
g1
(g2
tp128
Rp129
I0
F1.34742
sI1
F1.34732
sssI32
g1
(g2
tp130
Rp131
I200
g1
(g2
tp132
Rp133
I0
F1.71074
sI1
F1.7107
ssI500
g1
(g2
tp134
Rp135
I0
F1.99304
sI1
F1.99285
ssI10
g1
(g2
tp136
Rp137
I0
F1.04839
sI1
F1.04835
ssI100
g1
(g2
tp138
Rp139
I0
F1.34742
sI1
F1.34732
sssssI150
g1
(g2
tp140
Rp141
I2000
g1
(g2
tp142
Rp143
I8
g1
(g2
tp144
Rp145
I200
g1
(g2
tp146
Rp147
I0
F1.639205
sI1
F1.63912
ssI500
g1
(g2
tp148
Rp149
I0
F1.895725
sI1
F1.89571
ssI10
g1
(g2
tp150
Rp151
I0
F1.03431
sI1
F1.03428
ssI100
g1
(g2
tp152
Rp153
I0
F1.31572
sI1
F1.31569
sssI1
g1
(g2
tp154
Rp155
I200
g1
(g2
tp156
Rp157
I0
F1.63912
sI1
F1.63912
ssI500
g1
(g2
tp158
Rp159
I0
F1.89571
sI1
F1.89571
ssI10
g1
(g2
tp160
Rp161
I0
F1.03428
sI1
F1.03428
ssI100
g1
(g2
tp162
Rp163
I0
F1.31569
sI1
F1.31569
sssI16
g1
(g2
tp164
Rp165
I200
g1
(g2
tp166
Rp167
I0
F1.6393550000000001
sI1
F1.63912
ssI500
g1
(g2
tp168
Rp169
I0
F1.8957350000000002
sI1
F1.89571
ssI10
g1
(g2
tp170
Rp171
I0
F1.03431
sI1
F1.03428
ssI100
g1
(g2
tp172
Rp173
I0
F1.315785
sI1
F1.31569
sssI32
g1
(g2
tp174
Rp175
I200
g1
(g2
tp176
Rp177
I0
F1.639195
sI1
F1.63912
ssI500
g1
(g2
tp178
Rp179
I0
F1.89587
sI1
F1.89571
ssI10
g1
(g2
tp180
Rp181
I0
F1.03432
sI1
F1.03428
ssI100
g1
(g2
tp182
Rp183
I0
F1.31579
sI1
F1.31569
ssssssS'cyc_movielens_hog'
p184
g1
(g2
tp185
Rp186
I200
g1
(g2
tp187
Rp188
I2000
g1
(g2
tp189
Rp190
I8
g1
(g2
tp191
Rp192
I200
g1
(g2
tp193
Rp194
I0
F1.63883
sI1
F1.638825
ssI500
g1
(g2
tp195
Rp196
I0
F1.89571
sI1
F1.89571
ssI10
g1
(g2
tp197
Rp198
I0
F1.03424
sI1
F1.03424
ssI100
g1
(g2
tp199
Rp200
I0
F1.31554
sI1
F1.31554
sssI1
g1
(g2
tp201
Rp202
I200
g1
(g2
tp203
Rp204
I0
F1.63875
sI1
F1.63875
ssI500
g1
(g2
tp205
Rp206
I0
F1.89521
sI1
F1.89521
ssI10
g1
(g2
tp207
Rp208
I0
F1.03421
sI1
F1.03421
ssI100
g1
(g2
tp209
Rp210
I0
F1.31552
sI1
F1.31552
sssI16
g1
(g2
tp211
Rp212
I200
g1
(g2
tp213
Rp214
I0
F1.6390500000000001
sI1
F1.6390799999999999
ssI500
g1
(g2
tp215
Rp216
I0
F1.89539
sI1
F1.8952650000000002
ssI10
g1
(g2
tp217
Rp218
I0
F1.03424
sI1
F1.03424
ssI100
g1
(g2
tp219
Rp220
I0
F1.31563
sI1
F1.3156349999999999
sssI32
g1
(g2
tp221
Rp222
I200
g1
(g2
tp223
Rp224
I0
F1.63893
sI1
F1.638925
ssI500
g1
(g2
tp225
Rp226
I0
F1.89535
sI1
F1.89539
ssI10
g1
(g2
tp227
Rp228
I0
F1.0342449999999999
sI1
F1.0342449999999999
ssI100
g1
(g2
tp229
Rp230
I0
F1.31559
sI1
F1.31559
sssssI10
g1
(g2
tp231
Rp232
I2000
g1
(g2
tp233
Rp234
I8
g1
(g2
tp235
Rp236
I200
g1
(g2
tp237
Rp238
I0
F2.43334
sI1
F2.43333
ssI500
g1
(g2
tp239
Rp240
I0
F3.388275
sI1
F3.38826
ssI10
g1
(g2
tp241
Rp242
I0
F1.25309
sI1
F1.25309
ssI100
g1
(g2
tp243
Rp244
I0
F1.72417
sI1
F1.72418
sssI1
g1
(g2
tp245
Rp246
I200
g1
(g2
tp247
Rp248
I0
F2.43315
sI1
F2.43315
ssI500
g1
(g2
tp249
Rp250
I0
F3.38766
sI1
F3.38766
ssI10
g1
(g2
tp251
Rp252
I0
F1.25295
sI1
F1.25295
ssI100
g1
(g2
tp253
Rp254
I0
F1.72412
sI1
F1.72412
sssI16
g1
(g2
tp255
Rp256
I200
g1
(g2
tp257
Rp258
I0
F2.4331750000000003
sI1
F2.43317
ssI500
g1
(g2
tp259
Rp260
I0
F3.38753
sI1
F3.3876049999999998
ssI10
g1
(g2
tp261
Rp262
I0
F1.25309
sI1
F1.253095
ssI100
g1
(g2
tp263
Rp264
I0
F1.72429
sI1
F1.72429
sssI32
g1
(g2
tp265
Rp266
I200
g1
(g2
tp267
Rp268
I0
F2.433465
sI1
F2.433465
ssI500
g1
(g2
tp269
Rp270
I0
F3.387925
sI1
F3.3878000000000004
ssI10
g1
(g2
tp271
Rp272
I0
F1.2531050000000001
sI1
F1.2531
ssI100
g1
(g2
tp273
Rp274
I0
F1.724235
sI1
F1.724235
sssssI50
g1
(g2
tp275
Rp276
I2000
g1
(g2
tp277
Rp278
I8
g1
(g2
tp279
Rp280
I200
g1
(g2
tp281
Rp282
I0
F1.71081
sI1
F1.7108050000000001
ssI500
g1
(g2
tp283
Rp284
I0
F1.99344
sI1
F1.993435
ssI10
g1
(g2
tp285
Rp286
I0
F1.04839
sI1
F1.04839
ssI100
g1
(g2
tp287
Rp288
I0
F1.34734
sI1
F1.34734
sssI1
g1
(g2
tp289
Rp290
I200
g1
(g2
tp291
Rp292
I0
F1.7107
sI1
F1.7107
ssI500
g1
(g2
tp293
Rp294
I0
F1.99285
sI1
F1.99285
ssI10
g1
(g2
tp295
Rp296
I0
F1.04835
sI1
F1.04835
ssI100
g1
(g2
tp297
Rp298
I0
F1.34732
sI1
F1.34732
sssI16
g1
(g2
tp299
Rp300
I200
g1
(g2
tp301
Rp302
I0
F1.711025
sI1
F1.711025
ssI500
g1
(g2
tp303
Rp304
I0
F1.993265
sI1
F1.9931
ssI10
g1
(g2
tp305
Rp306
I0
F1.04839
sI1
F1.04839
ssI100
g1
(g2
tp307
Rp308
I0
F1.347435
sI1
F1.34744
sssI32
g1
(g2
tp309
Rp310
I200
g1
(g2
tp311
Rp312
I0
F1.710925
sI1
F1.71089
ssI500
g1
(g2
tp313
Rp314
I0
F1.992955
sI1
F1.992975
ssI10
g1
(g2
tp315
Rp316
I0
F1.04839
sI1
F1.04839
ssI100
g1
(g2
tp317
Rp318
I0
F1.347385
sI1
F1.34739
sssssI150
g1
(g2
tp319
Rp320
I2000
g1
(g2
tp321
Rp322
I8
g1
(g2
tp323
Rp324
I200
g1
(g2
tp325
Rp326
I0
F1.6392099999999998
sI1
F1.6392
ssI500
g1
(g2
tp327
Rp328
I0
F1.8962
sI1
F1.8962050000000001
ssI10
g1
(g2
tp329
Rp330
I0
F1.03432
sI1
F1.03432
ssI100
g1
(g2
tp331
Rp332
I0
F1.3157
sI1
F1.31571
sssI1
g1
(g2
tp333
Rp334
I200
g1
(g2
tp335
Rp336
I0
F1.63912
sI1
F1.63912
ssI500
g1
(g2
tp337
Rp338
I0
F1.89571
sI1
F1.89571
ssI10
g1
(g2
tp339
Rp340
I0
F1.03428
sI1
F1.03428
ssI100
g1
(g2
tp341
Rp342
I0
F1.31569
sI1
F1.31569
sssI16
g1
(g2
tp343
Rp344
I200
g1
(g2
tp345
Rp346
I0
F1.639435
sI1
F1.639465
ssI500
g1
(g2
tp347
Rp348
I0
F1.896015
sI1
F1.8957600000000001
ssI10
g1
(g2
tp349
Rp350
I0
F1.03432
sI1
F1.03432
ssI100
g1
(g2
tp351
Rp352
I0
F1.31581
sI1
F1.31582
sssI32
g1
(g2
tp353
Rp354
I200
g1
(g2
tp355
Rp356
I0
F1.639325
sI1
F1.63931
ssI500
g1
(g2
tp357
Rp358
I0
F1.8958
sI1
F1.8958
ssI10
g1
(g2
tp359
Rp360
I0
F1.03432
sI1
F1.03432
ssI100
g1
(g2
tp361
Rp362
I0
F1.3157999999999999
sI1
F1.31576
ssssssag1
(g2
tp363
Rp364
g5
g1
(g2
tp365
Rp366
I200
g1
(g2
tp367
Rp368
I2000
g1
(g2
tp369
Rp370
I8
g1
(g2
tp371
Rp372
I200
g1
(g2
tp373
Rp374
I0
F155.36450000000002
sI1
F157.15249999999997
ssI500
g1
(g2
tp375
Rp376
I0
F433.6375
sI1
F445.47950000000003
ssI10
g1
(g2
tp377
Rp378
I0
F17.4204
sI1
F17.6785
ssI100
g1
(g2
tp379
Rp380
I0
F84.01230000000001
sI1
F80.4168
sssI1
g1
(g2
tp381
Rp382
I200
g1
(g2
tp383
Rp384
I0
F731.7574999999999
sI1
F731.863
ssI500
g1
(g2
tp385
Rp386
I0
F1742.815
sI1
F1741.425
ssI10
g1
(g2
tp387
Rp388
I0
F75.828
sI1
F75.82935
ssI100
g1
(g2
tp389
Rp390
I0
F407.3535
sI1
F407.6655
sssI16
g1
(g2
tp391
Rp392
I200
g1
(g2
tp393
Rp394
I0
F151.6125
sI1
F199.315
ssI500
g1
(g2
tp395
Rp396
I0
F348.507
sI1
F330.4
ssI10
g1
(g2
tp397
Rp398
I0
F15.283
sI1
F17.2935
ssI100
g1
(g2
tp399
Rp400
I0
F98.3466
sI1
F119.56649999999999
sssI32
g1
(g2
tp401
Rp402
I200
g1
(g2
tp403
Rp404
I0
F183.7425
sI1
F159.6125
ssI500
g1
(g2
tp405
Rp406
I0
F326.0935
sI1
F313.8325
ssI10
g1
(g2
tp407
Rp408
I0
F10.946
sI1
F13.0002
ssI100
g1
(g2
tp409
Rp410
I0
F86.524
sI1
F103.74549999999999
sssssI10
g1
(g2
tp411
Rp412
I2000
g1
(g2
tp413
Rp414
I8
g1
(g2
tp415
Rp416
I200
g1
(g2
tp417
Rp418
I0
F6.958545
sI1
F7.396065
ssI500
g1
(g2
tp419
Rp420
I0
F21.9237
sI1
F22.307650000000002
ssI10
g1
(g2
tp421
Rp422
I0
F0.8853205
sI1
F0.8966265
ssI100
g1
(g2
tp423
Rp424
I0
F4.32491
sI1
F4.18266
sssI1
g1
(g2
tp425
Rp426
I200
g1
(g2
tp427
Rp428
I0
F36.8692
sI1
F36.4517
ssI500
g1
(g2
tp429
Rp430
I0
F87.6812
sI1
F87.30685
ssI10
g1
(g2
tp431
Rp432
I0
F3.8538750000000004
sI1
F3.852385
ssI100
g1
(g2
tp433
Rp434
I0
F20.5485
sI1
F20.90425
sssI16
g1
(g2
tp435
Rp436
I200
g1
(g2
tp437
Rp438
I0
F10.9176
sI1
F10.79855
ssI500
g1
(g2
tp439
Rp440
I0
F21.1537
sI1
F21.8701
ssI10
g1
(g2
tp441
Rp442
I0
F0.767032
sI1
F0.8710545000000001
ssI100
g1
(g2
tp443
Rp444
I0
F4.91723
sI1
F5.966795
sssI32
g1
(g2
tp445
Rp446
I200
g1
(g2
tp447
Rp448
I0
F10.0228
sI1
F9.280875000000002
ssI500
g1
(g2
tp449
Rp450
I0
F19.2379
sI1
F23.159
ssI10
g1
(g2
tp451
Rp452
I0
F0.5433265
sI1
F0.676132
ssI100
g1
(g2
tp453
Rp454
I0
F4.337675
sI1
F5.205735000000001
sssssI50
g1
(g2
tp455
Rp456
I2000
g1
(g2
tp457
Rp458
I8
g1
(g2
tp459
Rp460
I200
g1
(g2
tp461
Rp462
I0
F38.83155
sI1
F39.16615
ssI500
g1
(g2
tp463
Rp464
I0
F108.3345
sI1
F111.8155
ssI10
g1
(g2
tp465
Rp466
I0
F4.374980000000001
sI1
F4.428845000000001
ssI100
g1
(g2
tp467
Rp468
I0
F21.013550000000002
sI1
F20.085
sssI1
g1
(g2
tp469
Rp470
I200
g1
(g2
tp471
Rp472
I0
F183.098
sI1
F183.83350000000002
ssI500
g1
(g2
tp473
Rp474
I0
F437.3735
sI1
F436.4855
ssI10
g1
(g2
tp475
Rp476
I0
F19.10455
sI1
F18.99265
ssI100
g1
(g2
tp477
Rp478
I0
F102.3315
sI1
F102.5985
sssI16
g1
(g2
tp479
Rp480
I200
g1
(g2
tp481
Rp482
I0
F46.23825
sI1
F53.614149999999995
ssI500
g1
(g2
tp483
Rp484
I0
F93.62545
sI1
F81.67865
ssI10
g1
(g2
tp485
Rp486
I0
F3.821015
sI1
F4.3378250000000005
ssI100
g1
(g2
tp487
Rp488
I0
F24.56075
sI1
F29.834249999999997
sssI32
g1
(g2
tp489
Rp490
I200
g1
(g2
tp491
Rp492
I0
F47.60525
sI1
F45.1733
ssI500
g1
(g2
tp493
Rp494
I0
F81.6368
sI1
F106.55799999999999
ssI10
g1
(g2
tp495
Rp496
I0
F2.730365
sI1
F3.2889299999999997
ssI100
g1
(g2
tp497
Rp498
I0
F21.5879
sI1
F25.970950000000002
sssssI150
g1
(g2
tp499
Rp500
I2000
g1
(g2
tp501
Rp502
I8
g1
(g2
tp503
Rp504
I200
g1
(g2
tp505
Rp506
I0
F116.69200000000001
sI1
F117.5295
ssI500
g1
(g2
tp507
Rp508
I0
F326.028
sI1
F334.249
ssI10
g1
(g2
tp509
Rp510
I0
F13.08685
sI1
F13.2688
ssI100
g1
(g2
tp511
Rp512
I0
F63.027699999999996
sI1
F60.2662
sssI1
g1
(g2
tp513
Rp514
I200
g1
(g2
tp515
Rp516
I0
F549.4895
sI1
F548.9615
ssI500
g1
(g2
tp517
Rp518
I0
F1308.2
sI1
F1306.875
ssI10
g1
(g2
tp519
Rp520
I0
F56.9644
sI1
F57.08885
ssI100
g1
(g2
tp521
Rp522
I0
F306.69
sI1
F306.1675
sssI16
g1
(g2
tp523
Rp524
I200
g1
(g2
tp525
Rp526
I0
F124.65549999999999
sI1
F131.391
ssI500
g1
(g2
tp527
Rp528
I0
F233.3345
sI1
F245.06
ssI10
g1
(g2
tp529
Rp530
I0
F11.4596
sI1
F12.93565
ssI100
g1
(g2
tp531
Rp532
I0
F73.43485000000001
sI1
F69.1944
sssI32
g1
(g2
tp533
Rp534
I200
g1
(g2
tp535
Rp536
I0
F127.1105
sI1
F145.9985
ssI500
g1
(g2
tp537
Rp538
I0
F236.58350000000002
sI1
F255.706
ssI10
g1
(g2
tp539
Rp540
I0
F8.212635
sI1
F9.669995
ssI100
g1
(g2
tp541
Rp542
I0
F64.91745
sI1
F64.65625
ssssssg184
g1
(g2
tp543
Rp544
I200
g1
(g2
tp545
Rp546
I2000
g1
(g2
tp547
Rp548
I8
g1
(g2
tp549
Rp550
I200
g1
(g2
tp551
Rp552
I0
F164.0745
sI1
F163.907
ssI500
g1
(g2
tp553
Rp554
I0
F442.483
sI1
F445.233
ssI10
g1
(g2
tp555
Rp556
I0
F21.0858
sI1
F21.1102
ssI100
g1
(g2
tp557
Rp558
I0
F101.3485
sI1
F101.816
sssI1
g1
(g2
tp559
Rp560
I200
g1
(g2
tp561
Rp562
I0
F774.0139999999999
sI1
F767.0705
ssI500
g1
(g2
tp563
Rp564
I0
F1873.4
sI1
F1875.2849999999999
ssI10
g1
(g2
tp565
Rp566
I0
F78.0373
sI1
F78.2269
ssI100
g1
(g2
tp567
Rp568
I0
F409.0185
sI1
F424.551
sssI16
g1
(g2
tp569
Rp570
I200
g1
(g2
tp571
Rp572
I0
F197.81650000000002
sI1
F175.5235
ssI500
g1
(g2
tp573
Rp574
I0
F410.9815
sI1
F418.1855
ssI10
g1
(g2
tp575
Rp576
I0
F17.7534
sI1
F17.74155
ssI100
g1
(g2
tp577
Rp578
I0
F111.487
sI1
F114.509
sssI32
g1
(g2
tp579
Rp580
I200
g1
(g2
tp581
Rp582
I0
F189.1055
sI1
F181.488
ssI500
g1
(g2
tp583
Rp584
I0
F347.201
sI1
F344.7415
ssI10
g1
(g2
tp585
Rp586
I0
F12.52045
sI1
F12.53285
ssI100
g1
(g2
tp587
Rp588
I0
F97.68175
sI1
F98.19745
sssssI10
g1
(g2
tp589
Rp590
I2000
g1
(g2
tp591
Rp592
I8
g1
(g2
tp593
Rp594
I200
g1
(g2
tp595
Rp596
I0
F8.312495
sI1
F10.430905
ssI500
g1
(g2
tp597
Rp598
I0
F22.116999999999997
sI1
F22.14145
ssI10
g1
(g2
tp599
Rp600
I0
F1.074035
sI1
F1.0715400000000002
ssI100
g1
(g2
tp601
Rp602
I0
F7.3201149999999995
sI1
F6.32658
sssI1
g1
(g2
tp603
Rp604
I200
g1
(g2
tp605
Rp606
I0
F38.60595
sI1
F38.832800000000006
ssI500
g1
(g2
tp607
Rp608
I0
F94.39765
sI1
F93.40350000000001
ssI10
g1
(g2
tp609
Rp610
I0
F3.898215
sI1
F3.888845
ssI100
g1
(g2
tp611
Rp612
I0
F21.90015
sI1
F21.512500000000003
sssI16
g1
(g2
tp613
Rp614
I200
g1
(g2
tp615
Rp616
I0
F11.50525
sI1
F11.525500000000001
ssI500
g1
(g2
tp617
Rp618
I0
F21.658749999999998
sI1
F21.790950000000002
ssI10
g1
(g2
tp619
Rp620
I0
F0.8959794999999999
sI1
F0.8910610000000001
ssI100
g1
(g2
tp621
Rp622
I0
F5.742875
sI1
F5.7225
sssI32
g1
(g2
tp623
Rp624
I200
g1
(g2
tp625
Rp626
I0
F11.17765
sI1
F11.2299
ssI500
g1
(g2
tp627
Rp628
I0
F18.26665
sI1
F20.13815
ssI10
g1
(g2
tp629
Rp630
I0
F0.6335995000000001
sI1
F0.6327295
ssI100
g1
(g2
tp631
Rp632
I0
F4.872534999999999
sI1
F4.9248650000000005
sssssI50
g1
(g2
tp633
Rp634
I2000
g1
(g2
tp635
Rp636
I8
g1
(g2
tp637
Rp638
I200
g1
(g2
tp639
Rp640
I0
F40.8395
sI1
F40.94385
ssI500
g1
(g2
tp641
Rp642
I0
F110.448
sI1
F110.53049999999999
ssI10
g1
(g2
tp643
Rp644
I0
F5.2865
sI1
F5.27519
ssI100
g1
(g2
tp645
Rp646
I0
F25.3087
sI1
F25.47365
sssI1
g1
(g2
tp647
Rp648
I200
g1
(g2
tp649
Rp650
I0
F191.829
sI1
F192.34449999999998
ssI500
g1
(g2
tp651
Rp652
I0
F469.13149999999996
sI1
F466.26
ssI10
g1
(g2
tp653
Rp654
I0
F19.66035
sI1
F19.67405
ssI100
g1
(g2
tp655
Rp656
I0
F107.1865
sI1
F106.749
sssI16
g1
(g2
tp657
Rp658
I200
g1
(g2
tp659
Rp660
I0
F47.8926
sI1
F50.87765
ssI500
g1
(g2
tp661
Rp662
I0
F98.58070000000001
sI1
F110.081
ssI10
g1
(g2
tp663
Rp664
I0
F4.44248
sI1
F4.435645
ssI100
g1
(g2
tp665
Rp666
I0
F28.5841
sI1
F28.69925
sssI32
g1
(g2
tp667
Rp668
I200
g1
(g2
tp669
Rp670
I0
F45.949
sI1
F50.040549999999996
ssI500
g1
(g2
tp671
Rp672
I0
F93.9308
sI1
F104.1
ssI10
g1
(g2
tp673
Rp674
I0
F3.1286750000000003
sI1
F3.1229050000000003
ssI100
g1
(g2
tp675
Rp676
I0
F24.40565
sI1
F24.594549999999998
sssssI150
g1
(g2
tp677
Rp678
I2000
g1
(g2
tp679
Rp680
I8
g1
(g2
tp681
Rp682
I200
g1
(g2
tp683
Rp684
I0
F122.777
sI1
F123.21549999999999
ssI500
g1
(g2
tp685
Rp686
I0
F331.7605
sI1
F333.15
ssI10
g1
(g2
tp687
Rp688
I0
F15.8324
sI1
F15.836950000000002
ssI100
g1
(g2
tp689
Rp690
I0
F75.95415
sI1
F76.3121
sssI1
g1
(g2
tp691
Rp692
I200
g1
(g2
tp693
Rp694
I0
F580.501
sI1
F575.114
ssI500
g1
(g2
tp695
Rp696
I0
F1406.865
sI1
F1406.4450000000002
ssI10
g1
(g2
tp697
Rp698
I0
F58.8549
sI1
F58.7938
ssI100
g1
(g2
tp699
Rp700
I0
F307.408
sI1
F318.745
sssI16
g1
(g2
tp701
Rp702
I200
g1
(g2
tp703
Rp704
I0
F149.4985
sI1
F130.676
ssI500
g1
(g2
tp705
Rp706
I0
F308.2495
sI1
F317.0045
ssI10
g1
(g2
tp707
Rp708
I0
F13.310500000000001
sI1
F13.30785
ssI100
g1
(g2
tp709
Rp710
I0
F80.10195
sI1
F73.8333
sssI32
g1
(g2
tp711
Rp712
I200
g1
(g2
tp713
Rp714
I0
F131.2
sI1
F125.761
ssI500
g1
(g2
tp715
Rp716
I0
F277.3485
sI1
F295.7845
ssI10
g1
(g2
tp717
Rp718
I0
F9.406310000000001
sI1
F9.409115
ssI100
g1
(g2
tp719
Rp720
I0
F66.53915
sI1
F71.5166
ssssssag1
(g2
tp721
Rp722
g5
g1
(g2
tp723
Rp724
I200
g1
(g2
tp725
Rp726
I2000
g1
(g2
tp727
Rp728
I8
g1
(g2
tp729
Rp730
I200
g1
(g2
tp731
Rp732
I0
F157.57
sI1
F159.286
ssI500
g1
(g2
tp733
Rp734
I0
F435.79949999999997
sI1
F447.649
ssI10
g1
(g2
tp735
Rp736
I0
F19.724899999999998
sI1
F19.8903
ssI100
g1
(g2
tp737
Rp738
I0
F86.18935
sI1
F82.58185
sssI1
g1
(g2
tp739
Rp740
I200
g1
(g2
tp741
Rp742
I0
F733.7860000000001
sI1
F733.8935
ssI500
g1
(g2
tp743
Rp744
I0
F1744.855
sI1
F1743.445
ssI10
g1
(g2
tp745
Rp746
I0
F77.8577
sI1
F77.87764999999999
ssI100
g1
(g2
tp747
Rp748
I0
F409.3905
sI1
F409.68600000000004
sssI16
g1
(g2
tp749
Rp750
I200
g1
(g2
tp751
Rp752
I0
F153.7885
sI1
F201.5335
ssI500
g1
(g2
tp753
Rp754
I0
F350.7045
sI1
F332.59950000000003
ssI10
g1
(g2
tp755
Rp756
I0
F17.49005
sI1
F19.474249999999998
ssI100
g1
(g2
tp757
Rp758
I0
F100.5515
sI1
F121.7975
sssI32
g1
(g2
tp759
Rp760
I200
g1
(g2
tp761
Rp762
I0
F186.012
sI1
F161.8795
ssI500
g1
(g2
tp763
Rp764
I0
F328.318
sI1
F316.092
ssI10
g1
(g2
tp765
Rp766
I0
F13.22765
sI1
F15.2722
ssI100
g1
(g2
tp767
Rp768
I0
F88.81665
sI1
F106.0065
sssssI10
g1
(g2
tp769
Rp770
I2000
g1
(g2
tp771
Rp772
I8
g1
(g2
tp773
Rp774
I200
g1
(g2
tp775
Rp776
I0
F9.12189
sI1
F9.55057
ssI500
g1
(g2
tp777
Rp778
I0
F24.119500000000002
sI1
F24.488500000000002
ssI10
g1
(g2
tp779
Rp780
I0
F3.024145
sI1
F3.049295
ssI100
g1
(g2
tp781
Rp782
I0
F6.491745
sI1
F6.338215
sssI1
g1
(g2
tp783
Rp784
I200
g1
(g2
tp785
Rp786
I0
F38.90935
sI1
F38.47965
ssI500
g1
(g2
tp787
Rp788
I0
F89.73205
sI1
F89.33070000000001
ssI10
g1
(g2
tp789
Rp790
I0
F5.9059349999999995
sI1
F5.93928
ssI100
g1
(g2
tp791
Rp792
I0
F22.62255
sI1
F22.9369
sssI16
g1
(g2
tp793
Rp794
I200
g1
(g2
tp795
Rp796
I0
F13.14715
sI1
F12.999400000000001
ssI500
g1
(g2
tp797
Rp798
I0
F23.37465
sI1
F24.11945
ssI10
g1
(g2
tp799
Rp800
I0
F3.005385
sI1
F3.08059
ssI100
g1
(g2
tp801
Rp802
I0
F7.097695
sI1
F8.17811
sssI32
g1
(g2
tp803
Rp804
I200
g1
(g2
tp805
Rp806
I0
F12.29075
sI1
F11.5473
ssI500
g1
(g2
tp807
Rp808
I0
F21.4921
sI1
F25.40965
ssI10
g1
(g2
tp809
Rp810
I0
F2.8581250000000002
sI1
F2.96535
ssI100
g1
(g2
tp811
Rp812
I0
F6.612410000000001
sI1
F7.485215
sssssI50
g1
(g2
tp813
Rp814
I2000
g1
(g2
tp815
Rp816
I8
g1
(g2
tp817
Rp818
I200
g1
(g2
tp819
Rp820
I0
F40.96045
sI1
F41.332300000000004
ssI500
g1
(g2
tp821
Rp822
I0
F110.497
sI1
F113.964
ssI10
g1
(g2
tp823
Rp824
I0
F6.544785
sI1
F6.59374
ssI100
g1
(g2
tp825
Rp826
I0
F23.35295
sI1
F22.2284
sssI1
g1
(g2
tp827
Rp828
I200
g1
(g2
tp829
Rp830
I0
F185.1245
sI1
F185.872
ssI500
g1
(g2
tp831
Rp832
I0
F439.4185
sI1
F438.523
ssI10
g1
(g2
tp833
Rp834
I0
F21.158900000000003
sI1
F21.03915
ssI100
g1
(g2
tp835
Rp836
I0
F104.3835
sI1
F104.637
sssI16
g1
(g2
tp837
Rp838
I200
g1
(g2
tp839
Rp840
I0
F48.4465
sI1
F55.8185
ssI500
g1
(g2
tp841
Rp842
I0
F95.8398
sI1
F83.86840000000001
ssI10
g1
(g2
tp843
Rp844
I0
F6.028345
sI1
F6.51638
ssI100
g1
(g2
tp845
Rp846
I0
F26.76215
sI1
F32.04015
sssI32
g1
(g2
tp847
Rp848
I200
g1
(g2
tp849
Rp850
I0
F49.85515
sI1
F47.4269
ssI500
g1
(g2
tp851
Rp852
I0
F83.889
sI1
F108.8005
ssI10
g1
(g2
tp853
Rp854
I0
F4.9984
sI1
F5.55281
ssI100
g1
(g2
tp855
Rp856
I0
F23.8973
sI1
F28.21555
sssssI150
g1
(g2
tp857
Rp858
I2000
g1
(g2
tp859
Rp860
I8
g1
(g2
tp861
Rp862
I200
g1
(g2
tp863
Rp864
I0
F118.91
sI1
F119.798
ssI500
g1
(g2
tp865
Rp866
I0
F328.2165
sI1
F336.42999999999995
ssI10
g1
(g2
tp867
Rp868
I0
F15.225349999999999
sI1
F15.43755
ssI100
g1
(g2
tp869
Rp870
I0
F65.19505000000001
sI1
F62.457049999999995
sssI1
g1
(g2
tp871
Rp872
I200
g1
(g2
tp873
Rp874
I0
F551.51
sI1
F550.989
ssI500
g1
(g2
tp875
Rp876
I0
F1310.23
sI1
F1308.9050000000002
ssI10
g1
(g2
tp877
Rp878
I0
F58.98835
sI1
F59.15265
ssI100
g1
(g2
tp879
Rp880
I0
F308.72900000000004
sI1
F308.1875
sssI16
g1
(g2
tp881
Rp882
I200
g1
(g2
tp883
Rp884
I0
F126.87200000000001
sI1
F133.58550000000002
ssI500
g1
(g2
tp885
Rp886
I0
F235.564
sI1
F247.2775
ssI10
g1
(g2
tp887
Rp888
I0
F13.665
sI1
F15.1568
ssI100
g1
(g2
tp889
Rp890
I0
F75.6636
sI1
F71.39675
sssI32
g1
(g2
tp891
Rp892
I200
g1
(g2
tp893
Rp894
I0
F129.3855
sI1
F148.2345
ssI500
g1
(g2
tp895
Rp896
I0
F238.8265
sI1
F257.978
ssI10
g1
(g2
tp897
Rp898
I0
F10.4833
sI1
F11.9679
ssI100
g1
(g2
tp899
Rp900
I0
F67.18335
sI1
F66.95485
ssssssg184
g1
(g2
tp901
Rp902
I200
g1
(g2
tp903
Rp904
I2000
g1
(g2
tp905
Rp906
I8
g1
(g2
tp907
Rp908
I200
g1
(g2
tp909
Rp910
I0
F164.128
sI1
F163.96
ssI500
g1
(g2
tp911
Rp912
I0
F442.53549999999996
sI1
F445.2855
ssI10
g1
(g2
tp913
Rp914
I0
F21.13935
sI1
F21.16365
ssI100
g1
(g2
tp915
Rp916
I0
F101.4015
sI1
F101.869
sssI1
g1
(g2
tp917
Rp918
I200
g1
(g2
tp919
Rp920
I0
F774.0640000000001
sI1
F767.1205
ssI500
g1
(g2
tp921
Rp922
I0
F1873.45
sI1
F1875.33
ssI10
g1
(g2
tp923
Rp924
I0
F78.08715000000001
sI1
F78.2766
ssI100
g1
(g2
tp925
Rp926
I0
F409.0685
sI1
F424.601
sssI16
g1
(g2
tp927
Rp928
I200
g1
(g2
tp929
Rp930
I0
F197.871
sI1
F175.5785
ssI500
g1
(g2
tp931
Rp932
I0
F411.036
sI1
F418.2405
ssI10
g1
(g2
tp933
Rp934
I0
F17.807949999999998
sI1
F17.797
ssI100
g1
(g2
tp935
Rp936
I0
F111.5415
sI1
F114.56450000000001
sssI32
g1
(g2
tp937
Rp938
I200
g1
(g2
tp939
Rp940
I0
F189.16500000000002
sI1
F181.546
ssI500
g1
(g2
tp941
Rp942
I0
F347.2595
sI1
F344.79949999999997
ssI10
g1
(g2
tp943
Rp944
I0
F12.57985
sI1
F12.591899999999999
ssI100
g1
(g2
tp945
Rp946
I0
F97.7409
sI1
F98.2562
sssssI10
g1
(g2
tp947
Rp948
I2000
g1
(g2
tp949
Rp950
I8
g1
(g2
tp951
Rp952
I200
g1
(g2
tp953
Rp954
I0
F8.364775
sI1
F10.483084999999999
ssI500
g1
(g2
tp955
Rp956
I0
F22.17
sI1
F22.1946
ssI10
g1
(g2
tp957
Rp958
I0
F1.126365
sI1
F1.12304
ssI100
g1
(g2
tp959
Rp960
I0
F7.3717500000000005
sI1
F6.37892
sssI1
g1
(g2
tp961
Rp962
I200
g1
(g2
tp963
Rp964
I0
F38.65545
sI1
F38.882
ssI500
g1
(g2
tp965
Rp966
I0
F94.44685
sI1
F93.4529
ssI10
g1
(g2
tp967
Rp968
I0
F3.947565
sI1
F3.93848
ssI100
g1
(g2
tp969
Rp970
I0
F21.95005
sI1
F21.56215
sssI16
g1
(g2
tp971
Rp972
I200
g1
(g2
tp973
Rp974
I0
F11.56015
sI1
F11.5807
ssI500
g1
(g2
tp975
Rp976
I0
F21.71345
sI1
F21.846
ssI10
g1
(g2
tp977
Rp978
I0
F0.950925
sI1
F0.9456585
ssI100
g1
(g2
tp979
Rp980
I0
F5.79739
sI1
F5.77763
sssI32
g1
(g2
tp981
Rp982
I200
g1
(g2
tp983
Rp984
I0
F11.236
sI1
F11.28805
ssI500
g1
(g2
tp985
Rp986
I0
F18.32375
sI1
F20.1958
ssI10
g1
(g2
tp987
Rp988
I0
F0.6924265000000001
sI1
F0.6913905
ssI100
g1
(g2
tp989
Rp990
I0
F4.931065
sI1
F4.98326
sssssI50
g1
(g2
tp991
Rp992
I2000
g1
(g2
tp993
Rp994
I8
g1
(g2
tp995
Rp996
I200
g1
(g2
tp997
Rp998
I0
F40.89234999999999
sI1
F40.99625
ssI500
g1
(g2
tp999
Rp1000
I0
F110.501
sI1
F110.583
ssI10
g1
(g2
tp1001
Rp1002
I0
F5.339275
sI1
F5.327675
ssI100
g1
(g2
tp1003
Rp1004
I0
F25.3614
sI1
F25.5261
sssI1
g1
(g2
tp1005
Rp1006
I200
g1
(g2
tp1007
Rp1008
I0
F191.8785
sI1
F192.3945
ssI500
g1
(g2
tp1009
Rp1010
I0
F469.1815
sI1
F466.30949999999996
ssI10
g1
(g2
tp1011
Rp1012
I0
F19.7105
sI1
F19.724249999999998
ssI100
g1
(g2
tp1013
Rp1014
I0
F107.2365
sI1
F106.799
sssI16
g1
(g2
tp1015
Rp1016
I200
g1
(g2
tp1017
Rp1018
I0
F47.9473
sI1
F50.9326
ssI500
g1
(g2
tp1019
Rp1020
I0
F98.63419999999999
sI1
F110.136
ssI10
g1
(g2
tp1021
Rp1022
I0
F4.496925
sI1
F4.489845000000001
ssI100
g1
(g2
tp1023
Rp1024
I0
F28.63825
sI1
F28.753700000000002
sssI32
g1
(g2
tp1025
Rp1026
I200
g1
(g2
tp1027
Rp1028
I0
F46.0071
sI1
F50.0989
ssI500
g1
(g2
tp1029
Rp1030
I0
F93.9888
sI1
F104.1585
ssI10
g1
(g2
tp1031
Rp1032
I0
F3.1876249999999997
sI1
F3.1817599999999997
ssI100
g1
(g2
tp1033
Rp1034
I0
F24.464350000000003
sI1
F24.652549999999998
sssssI150
g1
(g2
tp1035
Rp1036
I2000
g1
(g2
tp1037
Rp1038
I8
g1
(g2
tp1039
Rp1040
I200
g1
(g2
tp1041
Rp1042
I0
F122.83099999999999
sI1
F123.2685
ssI500
g1
(g2
tp1043
Rp1044
I0
F331.81399999999996
sI1
F333.203
ssI10
g1
(g2
tp1045
Rp1046
I0
F15.8855
sI1
F15.8902
ssI100
g1
(g2
tp1047
Rp1048
I0
F76.0072
sI1
F76.3651
sssI1
g1
(g2
tp1049
Rp1050
I200
g1
(g2
tp1051
Rp1052
I0
F580.5509999999999
sI1
F575.1635
ssI500
g1
(g2
tp1053
Rp1054
I0
F1406.915
sI1
F1406.495
ssI10
g1
(g2
tp1055
Rp1056
I0
F58.9049
sI1
F58.8438
ssI100
g1
(g2
tp1057
Rp1058
I0
F307.45799999999997
sI1
F318.79449999999997
sssI16
g1
(g2
tp1059
Rp1060
I200
g1
(g2
tp1061
Rp1062
I0
F149.55349999999999
sI1
F130.731
ssI500
g1
(g2
tp1063
Rp1064
I0
F308.304
sI1
F317.0595
ssI10
g1
(g2
tp1065
Rp1066
I0
F13.365749999999998
sI1
F13.36255
ssI100
g1
(g2
tp1067
Rp1068
I0
F80.1562
sI1
F73.88740000000001
sssI32
g1
(g2
tp1069
Rp1070
I200
g1
(g2
tp1071
Rp1072
I0
F131.25900000000001
sI1
F125.81899999999999
ssI500
g1
(g2
tp1073
Rp1074
I0
F277.4075
sI1
F295.843
ssI10
g1
(g2
tp1075
Rp1076
I0
F9.465575
sI1
F9.467925000000001
ssI100
g1
(g2
tp1077
Rp1078
I0
F66.59735
sI1
F71.57589999999999
ssssssa.