(lp0
ccollections
defaultdict
p1
(c__main__
tree
p2
tp3
Rp4
S'cyc_movielens_cyc'
p5
g1
(g2
tp6
Rp7
I10
g1
(g2
tp8
Rp9
I200
g1
(g2
tp10
Rp11
I8
g1
(g2
tp12
Rp13
I10
g1
(g2
tp14
Rp15
I0
F1.57548
sI1
F1.57426
ssI100
g1
(g2
tp16
Rp17
I0
F2.2736400000000003
sI1
F2.27326
sssI1
g1
(g2
tp18
Rp19
I10
g1
(g2
tp20
Rp21
I0
F1.57426
sI1
F1.57426
ssI100
g1
(g2
tp22
Rp23
I0
F2.27326
sI1
F2.27326
sssssI50
g1
(g2
tp24
Rp25
I200
g1
(g2
tp26
Rp27
I8
g1
(g2
tp28
Rp29
I10
g1
(g2
tp30
Rp31
I0
F1.191845
sI1
F1.19147
ssI100
g1
(g2
tp32
Rp33
I0
F1.68277
sI1
F1.6824
sssI1
g1
(g2
tp34
Rp35
I10
g1
(g2
tp36
Rp37
I0
F1.19147
sI1
F1.19147
ssI100
g1
(g2
tp38
Rp39
I0
F1.6824
sI1
F1.6824
sssssI150
g1
(g2
tp40
Rp41
I200
g1
(g2
tp42
Rp43
I8
g1
(g2
tp44
Rp45
I10
g1
(g2
tp46
Rp47
I0
F1.16698
sI1
F1.16665
ssI100
g1
(g2
tp48
Rp49
I0
F1.6353499999999999
sI1
F1.635
sssI1
g1
(g2
tp50
Rp51
I10
g1
(g2
tp52
Rp53
I0
F1.16665
sI1
F1.16665
ssI100
g1
(g2
tp54
Rp55
I0
F1.635
sI1
F1.635
ssssssS'cyc_movielens_hog'
p56
g1
(g2
tp57
Rp58
I10
g1
(g2
tp59
Rp60
I200
g1
(g2
tp61
Rp62
I8
g1
(g2
tp63
Rp64
I10
g1
(g2
tp65
Rp66
I0
F1.57471
sI1
F1.574665
ssI100
g1
(g2
tp67
Rp68
I0
F2.27393
sI1
F2.274
sssI1
g1
(g2
tp69
Rp70
I10
g1
(g2
tp71
Rp72
I0
F1.57426
sI1
F1.57426
ssI100
g1
(g2
tp73
Rp74
I0
F2.27326
sI1
F2.27326
sssssI50
g1
(g2
tp75
Rp76
I200
g1
(g2
tp77
Rp78
I8
g1
(g2
tp79
Rp80
I10
g1
(g2
tp81
Rp82
I0
F1.1916099999999998
sI1
F1.191595
ssI100
g1
(g2
tp83
Rp84
I0
F1.682955
sI1
F1.682935
sssI1
g1
(g2
tp85
Rp86
I10
g1
(g2
tp87
Rp88
I0
F1.19147
sI1
F1.19147
ssI100
g1
(g2
tp89
Rp90
I0
F1.6824
sI1
F1.6824
sssssI150
g1
(g2
tp91
Rp92
I200
g1
(g2
tp93
Rp94
I8
g1
(g2
tp95
Rp96
I10
g1
(g2
tp97
Rp98
I0
F1.166765
sI1
F1.16676
ssI100
g1
(g2
tp99
Rp100
I0
F1.63555
sI1
F1.63554
sssI1
g1
(g2
tp101
Rp102
I10
g1
(g2
tp103
Rp104
I0
F1.16665
sI1
F1.16665
ssI100
g1
(g2
tp105
Rp106
I0
F1.635
sI1
F1.635
ssssssag1
(g2
tp107
Rp108
g5
g1
(g2
tp109
Rp110
I10
g1
(g2
tp111
Rp112
I200
g1
(g2
tp113
Rp114
I8
g1
(g2
tp115
Rp116
I10
g1
(g2
tp117
Rp118
I0
F0.13190600000000002
sI1
F0.1668625
ssI100
g1
(g2
tp119
Rp120
I0
F0.582238
sI1
F0.7046345
sssI1
g1
(g2
tp121
Rp122
I10
g1
(g2
tp123
Rp124
I0
F0.36273449999999996
sI1
F0.365936
ssI100
g1
(g2
tp125
Rp126
I0
F1.41132
sI1
F1.45514
sssssI50
g1
(g2
tp127
Rp128
I200
g1
(g2
tp129
Rp130
I8
g1
(g2
tp131
Rp132
I10
g1
(g2
tp133
Rp134
I0
F0.6375284999999999
sI1
F0.817663
ssI100
g1
(g2
tp135
Rp136
I0
F2.88829
sI1
F3.495885
sssI1
g1
(g2
tp137
Rp138
I10
g1
(g2
tp139
Rp140
I0
F1.78444
sI1
F1.7931
ssI100
g1
(g2
tp141
Rp142
I0
F6.89054
sI1
F6.92518
sssssI150
g1
(g2
tp143
Rp144
I200
g1
(g2
tp145
Rp146
I8
g1
(g2
tp147
Rp148
I10
g1
(g2
tp149
Rp150
I0
F1.89533
sI1
F2.4480250000000003
ssI100
g1
(g2
tp151
Rp152
I0
F8.65968
sI1
F10.495750000000001
sssI1
g1
(g2
tp153
Rp154
I10
g1
(g2
tp155
Rp156
I0
F5.313345
sI1
F5.343769999999999
ssI100
g1
(g2
tp157
Rp158
I0
F20.586199999999998
sI1
F20.7119
ssssssg56
g1
(g2
tp159
Rp160
I10
g1
(g2
tp161
Rp162
I200
g1
(g2
tp163
Rp164
I8
g1
(g2
tp165
Rp166
I10
g1
(g2
tp167
Rp168
I0
F0.2638275
sI1
F0.282698
ssI100
g1
(g2
tp169
Rp170
I0
F0.949098
sI1
F0.9704524999999999
sssI1
g1
(g2
tp171
Rp172
I10
g1
(g2
tp173
Rp174
I0
F0.3813955
sI1
F0.38017449999999997
ssI100
g1
(g2
tp175
Rp176
I0
F1.4606750000000002
sI1
F1.428
sssssI50
g1
(g2
tp177
Rp178
I200
g1
(g2
tp179
Rp180
I8
g1
(g2
tp181
Rp182
I10
g1
(g2
tp183
Rp184
I0
F1.3248600000000001
sI1
F1.310825
ssI100
g1
(g2
tp185
Rp186
I0
F4.8504000000000005
sI1
F4.933795
sssI1
g1
(g2
tp187
Rp188
I10
g1
(g2
tp189
Rp190
I0
F1.96108
sI1
F1.95729
ssI100
g1
(g2
tp191
Rp192
I0
F7.30854
sI1
F7.29852
sssssI150
g1
(g2
tp193
Rp194
I200
g1
(g2
tp195
Rp196
I8
g1
(g2
tp197
Rp198
I10
g1
(g2
tp199
Rp200
I0
F3.838905
sI1
F3.805645
ssI100
g1
(g2
tp201
Rp202
I0
F14.705300000000001
sI1
F14.4941
sssI1
g1
(g2
tp203
Rp204
I10
g1
(g2
tp205
Rp206
I0
F5.859775
sI1
F5.85722
ssI100
g1
(g2
tp207
Rp208
I0
F20.534950000000002
sI1
F21.71405
ssssssag1
(g2
tp209
Rp210
g5
g1
(g2
tp211
Rp212
I10
g1
(g2
tp213
Rp214
I200
g1
(g2
tp215
Rp216
I8
g1
(g2
tp217
Rp218
I10
g1
(g2
tp219
Rp220
I0
F0.33881799999999995
sI1
F0.372444
ssI100
g1
(g2
tp221
Rp222
I0
F0.787201
sI1
F0.910858
sssI1
g1
(g2
tp223
Rp224
I10
g1
(g2
tp225
Rp226
I0
F0.557205
sI1
F0.5598185
ssI100
g1
(g2
tp227
Rp228
I0
F1.605645
sI1
F1.6507049999999999
sssssI50
g1
(g2
tp229
Rp230
I200
g1
(g2
tp231
Rp232
I8
g1
(g2
tp233
Rp234
I10
g1
(g2
tp235
Rp236
I0
F0.8429105
sI1
F1.02287
ssI100
g1
(g2
tp237
Rp238
I0
F3.092465
sI1
F3.699345
sssI1
g1
(g2
tp239
Rp240
I10
g1
(g2
tp241
Rp242
I0
F1.976975
sI1
F1.986275
ssI100
g1
(g2
tp243
Rp244
I0
F7.08447
sI1
F7.11967
sssssI150
g1
(g2
tp245
Rp246
I200
g1
(g2
tp247
Rp248
I8
g1
(g2
tp249
Rp250
I10
g1
(g2
tp251
Rp252
I0
F2.0990599999999997
sI1
F2.652535
ssI100
g1
(g2
tp253
Rp254
I0
F8.86496
sI1
F10.70325
sssI1
g1
(g2
tp255
Rp256
I10
g1
(g2
tp257
Rp258
I0
F5.506209999999999
sI1
F5.53576
ssI100
g1
(g2
tp259
Rp260
I0
F20.7791
sI1
F20.9055
ssssssg56
g1
(g2
tp261
Rp262
I10
g1
(g2
tp263
Rp264
I200
g1
(g2
tp265
Rp266
I8
g1
(g2
tp267
Rp268
I10
g1
(g2
tp269
Rp270
I0
F0.26552050000000005
sI1
F0.28431649999999997
ssI100
g1
(g2
tp271
Rp272
I0
F0.9507585
sI1
F0.9720735
sssI1
g1
(g2
tp273
Rp274
I10
g1
(g2
tp275
Rp276
I0
F0.382602
sI1
F0.3813565
ssI100
g1
(g2
tp277
Rp278
I0
F1.46203
sI1
F1.4291900000000002
sssssI50
g1
(g2
tp279
Rp280
I200
g1
(g2
tp281
Rp282
I8
g1
(g2
tp283
Rp284
I10
g1
(g2
tp285
Rp286
I0
F1.326535
sI1
F1.312405
ssI100
g1
(g2
tp287
Rp288
I0
F4.852095
sI1
F4.935385
sssI1
g1
(g2
tp289
Rp290
I10
g1
(g2
tp291
Rp292
I0
F1.96233
sI1
F1.9585750000000002
ssI100
g1
(g2
tp293
Rp294
I0
F7.30975
sI1
F7.299685
sssssI150
g1
(g2
tp295
Rp296
I200
g1
(g2
tp297
Rp298
I8
g1
(g2
tp299
Rp300
I10
g1
(g2
tp301
Rp302
I0
F3.840545
sI1
F3.8072350000000004
ssI100
g1
(g2
tp303
Rp304
I0
F14.706949999999999
sI1
F14.495750000000001
sssI1
g1
(g2
tp305
Rp306
I10
g1
(g2
tp307
Rp308
I0
F5.8612
sI1
F5.85861
ssI100
g1
(g2
tp309
Rp310
I0
F20.53615
sI1
F21.7155
ssssssa.