(lp0
ccollections
defaultdict
p1
(c__main__
tree
p2
tp3
Rp4
S'cyc_movielens_cyc'
p5
g1
(g2
tp6
Rp7
I200
g1
(g2
tp8
Rp9
I200
g1
(g2
tp10
Rp11
I16
g1
(g2
tp12
Rp13
I200
g1
(g2
tp14
Rp15
I0
F2.238923333333333
sI1
F2.23789
ssI100
g1
(g2
tp16
Rp17
I0
F1.63548
sI1
F1.6347499999999997
ssI10
g1
(g2
tp18
Rp19
I0
F1.16667
sI1
F1.16652
ssI500
g1
(g2
tp20
Rp21
I0
F2.8590400000000002
sI1
F2.8596799999999996
sssI8
g1
(g2
tp22
Rp23
I200
g1
(g2
tp24
Rp25
I0
F2.2384533333333336
sI1
F2.23789
ssI100
g1
(g2
tp26
Rp27
I0
F1.6351266666666666
sI1
F1.6347499999999997
ssI10
g1
(g2
tp28
Rp29
I0
F1.16664
sI1
F1.16652
ssI500
g1
(g2
tp30
Rp31
I0
F2.8596733333333333
sI1
F2.8596799999999996
sssI4
g1
(g2
tp32
Rp33
I200
g1
(g2
tp34
Rp35
I0
F2.2380633333333333
sI1
F2.23789
ssI100
g1
(g2
tp36
Rp37
I0
F1.6349100000000003
sI1
F1.6347499999999997
ssI10
g1
(g2
tp38
Rp39
I0
F1.16658
sI1
F1.16652
ssI500
g1
(g2
tp40
Rp41
I0
F2.85976
sI1
F2.8596799999999996
ssssI250
g1
(g2
tp42
Rp43
I16
g1
(g2
tp44
Rp45
I200
g1
(g2
tp46
Rp47
I0
F2.2390833333333333
sI1
F2.23789
ssI100
g1
(g2
tp48
Rp49
I0
F1.6354966666666666
sI1
F1.6347499999999997
ssI10
g1
(g2
tp50
Rp51
I0
F1.1666666666666665
sI1
F1.16652
ssI500
g1
(g2
tp52
Rp53
I0
F2.859493333333333
sI1
F2.8596799999999996
sssI8
g1
(g2
tp54
Rp55
I200
g1
(g2
tp56
Rp57
I0
F2.238446666666667
sI1
F2.23789
ssI100
g1
(g2
tp58
Rp59
I0
F1.63515
sI1
F1.6347499999999997
ssI10
g1
(g2
tp60
Rp61
I0
F1.1666533333333333
sI1
F1.16652
ssI500
g1
(g2
tp62
Rp63
I0
F2.85951
sI1
F2.8596799999999996
sssI4
g1
(g2
tp64
Rp65
I200
g1
(g2
tp66
Rp67
I0
F2.238096666666667
sI1
F2.23789
ssI100
g1
(g2
tp68
Rp69
I0
F1.6349066666666667
sI1
F1.6347499999999997
ssI10
g1
(g2
tp70
Rp71
I0
F1.16658
sI1
F1.16652
ssI500
g1
(g2
tp72
Rp73
I0
F2.85969
sI1
F2.8596799999999996
ssssI100
g1
(g2
tp74
Rp75
I16
g1
(g2
tp76
Rp77
I200
g1
(g2
tp78
Rp79
I0
F2.2388333333333335
sI1
F2.23789
ssI100
g1
(g2
tp80
Rp81
I0
F1.63548
sI1
F1.6347499999999997
ssI10
g1
(g2
tp82
Rp83
I0
F1.16666
sI1
F1.16652
ssI500
g1
(g2
tp84
Rp85
I0
F2.85928
sI1
F2.8596799999999996
sssI8
g1
(g2
tp86
Rp87
I200
g1
(g2
tp88
Rp89
I0
F2.2383699999999997
sI1
F2.23789
ssI100
g1
(g2
tp90
Rp91
I0
F1.6351133333333336
sI1
F1.6347499999999997
ssI10
g1
(g2
tp92
Rp93
I0
F1.1666433333333335
sI1
F1.16652
ssI500
g1
(g2
tp94
Rp95
I0
F2.8596733333333333
sI1
F2.8596799999999996
sssI4
g1
(g2
tp96
Rp97
I200
g1
(g2
tp98
Rp99
I0
F2.238136666666666
sI1
F2.23789
ssI100
g1
(g2
tp100
Rp101
I0
F1.6349166666666666
sI1
F1.6347499999999997
ssI10
g1
(g2
tp102
Rp103
I0
F1.16658
sI1
F1.16652
ssI500
g1
(g2
tp104
Rp105
I0
F2.8597300000000003
sI1
F2.8596799999999996
sssssI10
g1
(g2
tp106
Rp107
I200
g1
(g2
tp108
Rp109
I16
g1
(g2
tp110
Rp111
I200
g1
(g2
tp112
Rp113
I0
F3.3743166666666666
sI1
F3.3730500000000005
ssI100
g1
(g2
tp114
Rp115
I0
F2.2741233333333333
sI1
F2.27326
ssI10
g1
(g2
tp116
Rp117
I0
F1.5748433333333332
sI1
F1.57426
ssI500
g1
(g2
tp118
Rp119
I0
F4.903613333333333
sI1
F4.90277
sssI8
g1
(g2
tp120
Rp121
I200
g1
(g2
tp122
Rp123
I0
F3.37363
sI1
F3.3730500000000005
ssI100
g1
(g2
tp124
Rp125
I0
F2.2736
sI1
F2.27326
ssI10
g1
(g2
tp126
Rp127
I0
F1.5747466666666667
sI1
F1.57426
ssI500
g1
(g2
tp128
Rp129
I0
F4.9032100000000005
sI1
F4.90277
sssI4
g1
(g2
tp130
Rp131
I200
g1
(g2
tp132
Rp133
I0
F3.3733133333333334
sI1
F3.3730500000000005
ssI100
g1
(g2
tp134
Rp135
I0
F2.2733833333333333
sI1
F2.27326
ssI10
g1
(g2
tp136
Rp137
I0
F1.5744633333333333
sI1
F1.57426
ssI500
g1
(g2
tp138
Rp139
I0
F4.902959999999999
sI1
F4.90277
ssssI250
g1
(g2
tp140
Rp141
I16
g1
(g2
tp142
Rp143
I200
g1
(g2
tp144
Rp145
I0
F3.3743133333333333
sI1
F3.3730500000000005
ssI100
g1
(g2
tp146
Rp147
I0
F2.2740833333333335
sI1
F2.27326
ssI10
g1
(g2
tp148
Rp149
I0
F1.5748366666666669
sI1
F1.57426
ssI500
g1
(g2
tp150
Rp151
I0
F4.903436666666667
sI1
F4.90277
sssI8
g1
(g2
tp152
Rp153
I200
g1
(g2
tp154
Rp155
I0
F3.3736833333333336
sI1
F3.3730500000000005
ssI100
g1
(g2
tp156
Rp157
I0
F2.27367
sI1
F2.27326
ssI10
g1
(g2
tp158
Rp159
I0
F1.5747499999999999
sI1
F1.57426
ssI500
g1
(g2
tp160
Rp161
I0
F4.90284
sI1
F4.90277
sssI4
g1
(g2
tp162
Rp163
I200
g1
(g2
tp164
Rp165
I0
F3.3732433333333334
sI1
F3.3730500000000005
ssI100
g1
(g2
tp166
Rp167
I0
F2.2734366666666666
sI1
F2.27326
ssI10
g1
(g2
tp168
Rp169
I0
F1.5744466666666668
sI1
F1.57426
ssI500
g1
(g2
tp170
Rp171
I0
F4.902863333333333
sI1
F4.90277
ssssI100
g1
(g2
tp172
Rp173
I16
g1
(g2
tp174
Rp175
I200
g1
(g2
tp176
Rp177
I0
F3.3741133333333337
sI1
F3.3730500000000005
ssI100
g1
(g2
tp178
Rp179
I0
F2.2740666666666667
sI1
F2.27326
ssI10
g1
(g2
tp180
Rp181
I0
F1.5747999999999998
sI1
F1.57426
ssI500
g1
(g2
tp182
Rp183
I0
F4.903883333333333
sI1
F4.90277
sssI8
g1
(g2
tp184
Rp185
I200
g1
(g2
tp186
Rp187
I0
F3.3737566666666665
sI1
F3.3730500000000005
ssI100
g1
(g2
tp188
Rp189
I0
F2.2736433333333332
sI1
F2.27326
ssI10
g1
(g2
tp190
Rp191
I0
F1.57466
sI1
F1.57426
ssI500
g1
(g2
tp192
Rp193
I0
F4.903300000000001
sI1
F4.90277
sssI4
g1
(g2
tp194
Rp195
I200
g1
(g2
tp196
Rp197
I0
F3.37322
sI1
F3.3730500000000005
ssI100
g1
(g2
tp198
Rp199
I0
F2.2734099999999997
sI1
F2.27326
ssI10
g1
(g2
tp200
Rp201
I0
F1.5744666666666667
sI1
F1.57426
ssI500
g1
(g2
tp202
Rp203
I0
F4.9025799999999995
sI1
F4.90277
sssssI50
g1
(g2
tp204
Rp205
I200
g1
(g2
tp206
Rp207
I16
g1
(g2
tp208
Rp209
I200
g1
(g2
tp210
Rp211
I0
F2.3293233333333334
sI1
F2.32825
ssI100
g1
(g2
tp212
Rp213
I0
F1.6831733333333334
sI1
F1.6824000000000001
ssI10
g1
(g2
tp214
Rp215
I0
F1.19164
sI1
F1.19147
ssI500
g1
(g2
tp216
Rp217
I0
F3.0242133333333334
sI1
F3.0242799999999996
sssI8
g1
(g2
tp218
Rp219
I200
g1
(g2
tp220
Rp221
I0
F2.32879
sI1
F2.32825
ssI100
g1
(g2
tp222
Rp223
I0
F1.6827933333333334
sI1
F1.6824000000000001
ssI10
g1
(g2
tp224
Rp225
I0
F1.1916
sI1
F1.19147
ssI500
g1
(g2
tp226
Rp227
I0
F3.02429
sI1
F3.0242799999999996
sssI4
g1
(g2
tp228
Rp229
I200
g1
(g2
tp230
Rp231
I0
F2.3284133333333332
sI1
F2.32825
ssI100
g1
(g2
tp232
Rp233
I0
F1.6825266666666667
sI1
F1.6824000000000001
ssI10
g1
(g2
tp234
Rp235
I0
F1.19153
sI1
F1.19147
ssI500
g1
(g2
tp236
Rp237
I0
F3.02436
sI1
F3.0242799999999996
ssssI250
g1
(g2
tp238
Rp239
I16
g1
(g2
tp240
Rp241
I200
g1
(g2
tp242
Rp243
I0
F2.32914
sI1
F2.32825
ssI100
g1
(g2
tp244
Rp245
I0
F1.68306
sI1
F1.6824000000000001
ssI10
g1
(g2
tp246
Rp247
I0
F1.1916066666666667
sI1
F1.19147
ssI500
g1
(g2
tp248
Rp249
I0
F3.024086666666667
sI1
F3.0242799999999996
sssI8
g1
(g2
tp250
Rp251
I200
g1
(g2
tp252
Rp253
I0
F2.328796666666667
sI1
F2.32825
ssI100
g1
(g2
tp254
Rp255
I0
F1.68279
sI1
F1.6824000000000001
ssI10
g1
(g2
tp256
Rp257
I0
F1.1915933333333335
sI1
F1.19147
ssI500
g1
(g2
tp258
Rp259
I0
F3.0241400000000005
sI1
F3.0242799999999996
sssI4
g1
(g2
tp260
Rp261
I200
g1
(g2
tp262
Rp263
I0
F2.3284499999999997
sI1
F2.32825
ssI100
g1
(g2
tp264
Rp265
I0
F1.6825599999999998
sI1
F1.6824000000000001
ssI10
g1
(g2
tp266
Rp267
I0
F1.1915333333333333
sI1
F1.19147
ssI500
g1
(g2
tp268
Rp269
I0
F3.0243866666666666
sI1
F3.0242799999999996
ssssI100
g1
(g2
tp270
Rp271
I16
g1
(g2
tp272
Rp273
I200
g1
(g2
tp274
Rp275
I0
F2.3291733333333333
sI1
F2.32825
ssI100
g1
(g2
tp276
Rp277
I0
F1.6831233333333333
sI1
F1.6824000000000001
ssI10
g1
(g2
tp278
Rp279
I0
F1.19168
sI1
F1.19147
ssI500
g1
(g2
tp280
Rp281
I0
F3.024316666666666
sI1
F3.0242799999999996
sssI8
g1
(g2
tp282
Rp283
I200
g1
(g2
tp284
Rp285
I0
F2.328723333333333
sI1
F2.32825
ssI100
g1
(g2
tp286
Rp287
I0
F1.6828
sI1
F1.6824000000000001
ssI10
g1
(g2
tp288
Rp289
I0
F1.1915966666666666
sI1
F1.19147
ssI500
g1
(g2
tp290
Rp291
I0
F3.02411
sI1
F3.0242799999999996
sssI4
g1
(g2
tp292
Rp293
I200
g1
(g2
tp294
Rp295
I0
F2.3284533333333335
sI1
F2.32825
ssI100
g1
(g2
tp296
Rp297
I0
F1.6825666666666665
sI1
F1.6824000000000001
ssI10
g1
(g2
tp298
Rp299
I0
F1.19153
sI1
F1.19147
ssI500
g1
(g2
tp300
Rp301
I0
F3.02445
sI1
F3.0242799999999996
ssssssS'cyc_movielens_hog'
p302
g1
(g2
tp303
Rp304
I200
g1
(g2
tp305
Rp306
I200
g1
(g2
tp307
Rp308
I16
g1
(g2
tp309
Rp310
I200
g1
(g2
tp311
Rp312
I0
F2.2386033333333333
sI1
F2.2386766666666666
ssI100
g1
(g2
tp313
Rp314
I0
F1.6355199999999999
sI1
F1.6355533333333334
ssI10
g1
(g2
tp315
Rp316
I0
F1.1666933333333334
sI1
F1.16667
ssI500
g1
(g2
tp317
Rp318
I0
F2.86035
sI1
F2.8608399999999996
sssI8
g1
(g2
tp319
Rp320
I200
g1
(g2
tp321
Rp322
I0
F2.2386033333333333
sI1
F2.2385566666666668
ssI100
g1
(g2
tp323
Rp324
I0
F1.6352900000000001
sI1
F1.635316666666667
ssI10
g1
(g2
tp325
Rp326
I0
F1.1666433333333333
sI1
F1.1666366666666665
ssI500
g1
(g2
tp327
Rp328
I0
F2.8604533333333335
sI1
F2.8605199999999997
sssI4
g1
(g2
tp329
Rp330
I200
g1
(g2
tp331
Rp332
I0
F2.238373333333333
sI1
F2.2384
ssI100
g1
(g2
tp333
Rp334
I0
F1.6349799999999999
sI1
F1.63495
ssI10
g1
(g2
tp335
Rp336
I0
F1.1665866666666667
sI1
F1.1665833333333333
ssI500
g1
(g2
tp337
Rp338
I0
F2.8611066666666667
sI1
F2.860986666666667
ssssI250
g1
(g2
tp339
Rp340
I16
g1
(g2
tp341
Rp342
I200
g1
(g2
tp343
Rp344
I0
F2.238633333333333
sI1
F2.23863
ssI100
g1
(g2
tp345
Rp346
I0
F1.6355466666666667
sI1
F1.6355799999999998
ssI10
g1
(g2
tp347
Rp348
I0
F1.1666933333333334
sI1
F1.1666933333333334
ssI500
g1
(g2
tp349
Rp350
I0
F2.8603533333333337
sI1
F2.8606933333333333
sssI8
g1
(g2
tp351
Rp352
I200
g1
(g2
tp353
Rp354
I0
F2.2386433333333335
sI1
F2.2386233333333334
ssI100
g1
(g2
tp355
Rp356
I0
F1.6353433333333334
sI1
F1.6352766666666667
ssI10
g1
(g2
tp357
Rp358
I0
F1.1666233333333333
sI1
F1.1666366666666665
ssI500
g1
(g2
tp359
Rp360
I0
F2.8604133333333333
sI1
F2.8605199999999997
sssI4
g1
(g2
tp361
Rp362
I200
g1
(g2
tp363
Rp364
I0
F2.2383966666666666
sI1
F2.2383733333333335
ssI100
g1
(g2
tp365
Rp366
I0
F1.6349566666666666
sI1
F1.6349600000000002
ssI10
g1
(g2
tp367
Rp368
I0
F1.1665833333333333
sI1
F1.16658
ssI500
g1
(g2
tp369
Rp370
I0
F2.860886666666667
sI1
F2.86098
ssssI100
g1
(g2
tp371
Rp372
I16
g1
(g2
tp373
Rp374
I200
g1
(g2
tp375
Rp376
I0
F2.2386633333333332
sI1
F2.238653333333333
ssI100
g1
(g2
tp377
Rp378
I0
F1.6356233333333332
sI1
F1.6355866666666667
ssI10
g1
(g2
tp379
Rp380
I0
F1.16667
sI1
F1.1666766666666666
ssI500
g1
(g2
tp381
Rp382
I0
F2.8603533333333337
sI1
F2.8611333333333335
sssI8
g1
(g2
tp383
Rp384
I200
g1
(g2
tp385
Rp386
I0
F2.23859
sI1
F2.23864
ssI100
g1
(g2
tp387
Rp388
I0
F1.6353066666666667
sI1
F1.6352900000000001
ssI10
g1
(g2
tp389
Rp390
I0
F1.16663
sI1
F1.1666400000000001
ssI500
g1
(g2
tp391
Rp392
I0
F2.8606499999999997
sI1
F2.8606200000000004
sssI4
g1
(g2
tp393
Rp394
I200
g1
(g2
tp395
Rp396
I0
F2.238373333333333
sI1
F2.2384366666666664
ssI100
g1
(g2
tp397
Rp398
I0
F1.6349733333333336
sI1
F1.6349733333333336
ssI10
g1
(g2
tp399
Rp400
I0
F1.16658
sI1
F1.16658
ssI500
g1
(g2
tp401
Rp402
I0
F2.8610166666666665
sI1
F2.86097
sssssI10
g1
(g2
tp403
Rp404
I200
g1
(g2
tp405
Rp406
I16
g1
(g2
tp407
Rp408
I200
g1
(g2
tp409
Rp410
I0
F3.3737033333333333
sI1
F3.37369
ssI100
g1
(g2
tp411
Rp412
I0
F2.274313333333333
sI1
F2.2742799999999996
ssI10
g1
(g2
tp413
Rp414
I0
F1.5748733333333333
sI1
F1.5748566666666666
ssI500
g1
(g2
tp415
Rp416
I0
F4.904186666666667
sI1
F4.904376666666667
sssI8
g1
(g2
tp417
Rp418
I200
g1
(g2
tp419
Rp420
I0
F3.3736466666666662
sI1
F3.3737100000000004
ssI100
g1
(g2
tp421
Rp422
I0
F2.27399
sI1
F2.273953333333333
ssI10
g1
(g2
tp423
Rp424
I0
F1.5747266666666666
sI1
F1.5747666666666669
ssI500
g1
(g2
tp425
Rp426
I0
F4.9029066666666665
sI1
F4.90257
sssI4
g1
(g2
tp427
Rp428
I200
g1
(g2
tp429
Rp430
I0
F3.37392
sI1
F3.3738433333333333
ssI100
g1
(g2
tp431
Rp432
I0
F2.2734433333333333
sI1
F2.2734199999999998
ssI10
g1
(g2
tp433
Rp434
I0
F1.5745066666666665
sI1
F1.57453
ssI500
g1
(g2
tp435
Rp436
I0
F4.904083333333333
sI1
F4.904013333333334
ssssI250
g1
(g2
tp437
Rp438
I16
g1
(g2
tp439
Rp440
I200
g1
(g2
tp441
Rp442
I0
F3.37377
sI1
F3.3738033333333335
ssI100
g1
(g2
tp443
Rp444
I0
F2.27441
sI1
F2.2743866666666666
ssI10
g1
(g2
tp445
Rp446
I0
F1.57487
sI1
F1.5748866666666668
ssI500
g1
(g2
tp447
Rp448
I0
F4.903896666666667
sI1
F4.903883333333334
sssI8
g1
(g2
tp449
Rp450
I200
g1
(g2
tp451
Rp452
I0
F3.3736566666666667
sI1
F3.37365
ssI100
g1
(g2
tp453
Rp454
I0
F2.2739933333333333
sI1
F2.2738733333333334
ssI10
g1
(g2
tp455
Rp456
I0
F1.5746833333333334
sI1
F1.5746900000000001
ssI500
g1
(g2
tp457
Rp458
I0
F4.9027433333333335
sI1
F4.902796666666666
sssI4
g1
(g2
tp459
Rp460
I200
g1
(g2
tp461
Rp462
I0
F3.3738433333333333
sI1
F3.3739033333333333
ssI100
g1
(g2
tp463
Rp464
I0
F2.2734633333333334
sI1
F2.273483333333333
ssI10
g1
(g2
tp465
Rp466
I0
F1.5745533333333332
sI1
F1.5745066666666665
ssI500
g1
(g2
tp467
Rp468
I0
F4.904086666666667
sI1
F4.904240000000001
ssssI100
g1
(g2
tp469
Rp470
I16
g1
(g2
tp471
Rp472
I200
g1
(g2
tp473
Rp474
I0
F3.3738833333333336
sI1
F3.3736466666666662
ssI100
g1
(g2
tp475
Rp476
I0
F2.2744466666666665
sI1
F2.27444
ssI10
g1
(g2
tp477
Rp478
I0
F1.5748933333333335
sI1
F1.5749066666666665
ssI500
g1
(g2
tp479
Rp480
I0
F4.90428
sI1
F4.904543333333334
sssI8
g1
(g2
tp481
Rp482
I200
g1
(g2
tp483
Rp484
I0
F3.3735233333333334
sI1
F3.373646666666667
ssI100
g1
(g2
tp485
Rp486
I0
F2.2739966666666667
sI1
F2.27396
ssI10
g1
(g2
tp487
Rp488
I0
F1.5747466666666667
sI1
F1.57473
ssI500
g1
(g2
tp489
Rp490
I0
F4.902763333333333
sI1
F4.902769999999999
sssI4
g1
(g2
tp491
Rp492
I200
g1
(g2
tp493
Rp494
I0
F3.37383
sI1
F3.3737566666666665
ssI100
g1
(g2
tp495
Rp496
I0
F2.273483333333333
sI1
F2.27345
ssI10
g1
(g2
tp497
Rp498
I0
F1.5744999999999998
sI1
F1.57453
ssI500
g1
(g2
tp499
Rp500
I0
F4.9040566666666665
sI1
F4.904286666666667
sssssI50
g1
(g2
tp501
Rp502
I200
g1
(g2
tp503
Rp504
I16
g1
(g2
tp505
Rp506
I200
g1
(g2
tp507
Rp508
I0
F2.3288999999999995
sI1
F2.32891
ssI100
g1
(g2
tp509
Rp510
I0
F1.6831933333333333
sI1
F1.68323
ssI10
g1
(g2
tp511
Rp512
I0
F1.1916266666666668
sI1
F1.19166
ssI500
g1
(g2
tp513
Rp514
I0
F3.02512
sI1
F3.02535
sssI8
g1
(g2
tp515
Rp516
I200
g1
(g2
tp517
Rp518
I0
F2.3288766666666665
sI1
F2.32884
ssI100
g1
(g2
tp519
Rp520
I0
F1.68294
sI1
F1.6829699999999999
ssI10
g1
(g2
tp521
Rp522
I0
F1.1916133333333334
sI1
F1.1916
ssI500
g1
(g2
tp523
Rp524
I0
F3.025176666666667
sI1
F3.0249
sssI4
g1
(g2
tp525
Rp526
I200
g1
(g2
tp527
Rp528
I0
F2.3287833333333334
sI1
F2.328743333333333
ssI100
g1
(g2
tp529
Rp530
I0
F1.68262
sI1
F1.68262
ssI10
g1
(g2
tp531
Rp532
I0
F1.1915466666666668
sI1
F1.1915433333333334
ssI500
g1
(g2
tp533
Rp534
I0
F3.0256866666666666
sI1
F3.0256600000000002
ssssI250
g1
(g2
tp535
Rp536
I16
g1
(g2
tp537
Rp538
I200
g1
(g2
tp539
Rp540
I0
F2.3290166666666665
sI1
F2.328943333333333
ssI100
g1
(g2
tp541
Rp542
I0
F1.6832633333333333
sI1
F1.6832466666666666
ssI10
g1
(g2
tp543
Rp544
I0
F1.19164
sI1
F1.1916333333333333
ssI500
g1
(g2
tp545
Rp546
I0
F3.024993333333333
sI1
F3.0256133333333337
sssI8
g1
(g2
tp547
Rp548
I200
g1
(g2
tp549
Rp550
I0
F2.32891
sI1
F2.328943333333333
ssI100
g1
(g2
tp551
Rp552
I0
F1.6829766666666668
sI1
F1.6829766666666668
ssI10
g1
(g2
tp553
Rp554
I0
F1.1916033333333333
sI1
F1.1916033333333333
ssI500
g1
(g2
tp555
Rp556
I0
F3.024976666666667
sI1
F3.0249633333333334
sssI4
g1
(g2
tp557
Rp558
I200
g1
(g2
tp559
Rp560
I0
F2.3287933333333335
sI1
F2.3287633333333333
ssI100
g1
(g2
tp561
Rp562
I0
F1.68262
sI1
F1.68262
ssI10
g1
(g2
tp563
Rp564
I0
F1.1915333333333333
sI1
F1.1915366666666667
ssI500
g1
(g2
tp565
Rp566
I0
F3.025766666666667
sI1
F3.02576
ssssI100
g1
(g2
tp567
Rp568
I16
g1
(g2
tp569
Rp570
I200
g1
(g2
tp571
Rp572
I0
F2.3290566666666668
sI1
F2.32886
ssI100
g1
(g2
tp573
Rp574
I0
F1.6832366666666667
sI1
F1.6832533333333333
ssI10
g1
(g2
tp575
Rp576
I0
F1.19164
sI1
F1.1916666666666667
ssI500
g1
(g2
tp577
Rp578
I0
F3.0255833333333335
sI1
F3.02516
sssI8
g1
(g2
tp579
Rp580
I200
g1
(g2
tp581
Rp582
I0
F2.3289566666666666
sI1
F2.3289666666666666
ssI100
g1
(g2
tp583
Rp584
I0
F1.6829600000000002
sI1
F1.68298
ssI10
g1
(g2
tp585
Rp586
I0
F1.1916066666666667
sI1
F1.1916066666666667
ssI500
g1
(g2
tp587
Rp588
I0
F3.02511
sI1
F3.025216666666667
sssI4
g1
(g2
tp589
Rp590
I200
g1
(g2
tp591
Rp592
I0
F2.3287366666666665
sI1
F2.3287533333333337
ssI100
g1
(g2
tp593
Rp594
I0
F1.6826233333333331
sI1
F1.6826100000000002
ssI10
g1
(g2
tp595
Rp596
I0
F1.19153
sI1
F1.1915366666666667
ssI500
g1
(g2
tp597
Rp598
I0
F3.0255533333333333
sI1
F3.0256433333333335
ssssssag1
(g2
tp599
Rp600
g5
g1
(g2
tp601
Rp602
I200
g1
(g2
tp603
Rp604
I200
g1
(g2
tp605
Rp606
I16
g1
(g2
tp607
Rp608
I200
g1
(g2
tp609
Rp610
I0
F18.283033333333332
sI1
F22.255399999999998
ssI100
g1
(g2
tp611
Rp612
I0
F14.036266666666668
sI1
F19.677833333333336
ssI10
g1
(g2
tp613
Rp614
I0
F4.06251
sI1
F6.71605
ssI500
g1
(g2
tp615
Rp616
I0
F32.53906666666666
sI1
F35.23116666666667
sssI8
g1
(g2
tp617
Rp618
I200
g1
(g2
tp619
Rp620
I0
F22.699233333333336
sI1
F24.30176666666667
ssI100
g1
(g2
tp621
Rp622
I0
F19.036
sI1
F22.17946666666667
ssI10
g1
(g2
tp623
Rp624
I0
F4.216563333333333
sI1
F4.577146666666667
ssI500
g1
(g2
tp625
Rp626
I0
F41.14743333333333
sI1
F40.43626666666667
sssI4
g1
(g2
tp627
Rp628
I200
g1
(g2
tp629
Rp630
I0
F35.207633333333334
sI1
F36.762033333333335
ssI100
g1
(g2
tp631
Rp632
I0
F30.62433333333333
sI1
F32.97276666666667
ssI10
g1
(g2
tp633
Rp634
I0
F5.81722
sI1
F6.478823333333334
ssI500
g1
(g2
tp635
Rp636
I0
F62.993533333333325
sI1
F61.85113333333334
ssssI250
g1
(g2
tp637
Rp638
I16
g1
(g2
tp639
Rp640
I200
g1
(g2
tp641
Rp642
I0
F18.370733333333334
sI1
F22.170366666666666
ssI100
g1
(g2
tp643
Rp644
I0
F13.940033333333332
sI1
F19.546366666666668
ssI10
g1
(g2
tp645
Rp646
I0
F4.063576666666667
sI1
F5.391696666666667
ssI500
g1
(g2
tp647
Rp648
I0
F32.36773333333333
sI1
F36.18326666666667
sssI8
g1
(g2
tp649
Rp650
I200
g1
(g2
tp651
Rp652
I0
F22.656333333333333
sI1
F24.322266666666664
ssI100
g1
(g2
tp653
Rp654
I0
F18.853233333333336
sI1
F22.15276666666667
ssI10
g1
(g2
tp655
Rp656
I0
F3.88076
sI1
F4.36026
ssI500
g1
(g2
tp657
Rp658
I0
F40.8334
sI1
F40.423233333333336
sssI4
g1
(g2
tp659
Rp660
I200
g1
(g2
tp661
Rp662
I0
F35.02056666666667
sI1
F36.361399999999996
ssI100
g1
(g2
tp663
Rp664
I0
F30.4478
sI1
F32.70513333333333
ssI10
g1
(g2
tp665
Rp666
I0
F5.90147
sI1
F6.511893333333333
ssI500
g1
(g2
tp667
Rp668
I0
F62.481766666666665
sI1
F61.6193
ssssI100
g1
(g2
tp669
Rp670
I16
g1
(g2
tp671
Rp672
I200
g1
(g2
tp673
Rp674
I0
F18.5367
sI1
F22.8205
ssI100
g1
(g2
tp675
Rp676
I0
F14.252866666666668
sI1
F20.4431
ssI10
g1
(g2
tp677
Rp678
I0
F4.05142
sI1
F9.855683333333333
ssI500
g1
(g2
tp679
Rp680
I0
F33.089166666666664
sI1
F35.4298
sssI8
g1
(g2
tp681
Rp682
I200
g1
(g2
tp683
Rp684
I0
F23.111
sI1
F25.694533333333336
ssI100
g1
(g2
tp685
Rp686
I0
F19.0487
sI1
F23.43453333333333
ssI10
g1
(g2
tp687
Rp688
I0
F3.92005
sI1
F5.804393333333333
ssI500
g1
(g2
tp689
Rp690
I0
F41.908366666666666
sI1
F40.92353333333333
sssI4
g1
(g2
tp691
Rp692
I200
g1
(g2
tp693
Rp694
I0
F35.816766666666666
sI1
F38.468833333333336
ssI100
g1
(g2
tp695
Rp696
I0
F31.086299999999998
sI1
F34.616800000000005
ssI10
g1
(g2
tp697
Rp698
I0
F5.915906666666667
sI1
F7.11324
ssI500
g1
(g2
tp699
Rp700
I0
F63.98843333333334
sI1
F63.200799999999994
sssssI10
g1
(g2
tp701
Rp702
I200
g1
(g2
tp703
Rp704
I16
g1
(g2
tp705
Rp706
I200
g1
(g2
tp707
Rp708
I0
F0.9235253333333334
sI1
F1.1434966666666668
ssI100
g1
(g2
tp709
Rp710
I0
F0.7158686666666666
sI1
F1.0105246666666667
ssI10
g1
(g2
tp711
Rp712
I0
F0.21216466666666667
sI1
F0.33996066666666663
ssI500
g1
(g2
tp713
Rp714
I0
F1.6176033333333333
sI1
F1.8677366666666668
sssI8
g1
(g2
tp715
Rp716
I200
g1
(g2
tp717
Rp718
I0
F1.13401
sI1
F1.2602399999999998
ssI100
g1
(g2
tp719
Rp720
I0
F0.969793
sI1
F1.1187033333333334
ssI10
g1
(g2
tp721
Rp722
I0
F0.21491566666666664
sI1
F0.28631233333333334
ssI500
g1
(g2
tp723
Rp724
I0
F2.0483466666666668
sI1
F2.0471
sssI4
g1
(g2
tp725
Rp726
I200
g1
(g2
tp727
Rp728
I0
F1.7793400000000001
sI1
F1.8563766666666666
ssI100
g1
(g2
tp729
Rp730
I0
F1.5439866666666668
sI1
F1.6568333333333332
ssI10
g1
(g2
tp731
Rp732
I0
F0.30705800000000005
sI1
F0.34724666666666665
ssI500
g1
(g2
tp733
Rp734
I0
F3.1719899999999996
sI1
F3.1352966666666666
ssssI250
g1
(g2
tp735
Rp736
I16
g1
(g2
tp737
Rp738
I200
g1
(g2
tp739
Rp740
I0
F0.9236833333333334
sI1
F1.0788200000000001
ssI100
g1
(g2
tp741
Rp742
I0
F0.698217
sI1
F1.04363
ssI10
g1
(g2
tp743
Rp744
I0
F0.20239300000000002
sI1
F0.33273966666666666
ssI500
g1
(g2
tp745
Rp746
I0
F1.6317866666666667
sI1
F1.8432533333333332
sssI8
g1
(g2
tp747
Rp748
I200
g1
(g2
tp749
Rp750
I0
F1.1521833333333333
sI1
F1.28787
ssI100
g1
(g2
tp751
Rp752
I0
F0.9576223333333335
sI1
F1.13605
ssI10
g1
(g2
tp753
Rp754
I0
F0.20933133333333334
sI1
F0.2501876666666667
ssI500
g1
(g2
tp755
Rp756
I0
F2.0888333333333335
sI1
F2.0938166666666667
sssI4
g1
(g2
tp757
Rp758
I200
g1
(g2
tp759
Rp760
I0
F1.7655866666666666
sI1
F1.84168
ssI100
g1
(g2
tp761
Rp762
I0
F1.5353266666666665
sI1
F1.6511266666666666
ssI10
g1
(g2
tp763
Rp764
I0
F0.3101876666666667
sI1
F0.33624566666666666
ssI500
g1
(g2
tp765
Rp766
I0
F3.158583333333334
sI1
F3.1502533333333336
ssssI100
g1
(g2
tp767
Rp768
I16
g1
(g2
tp769
Rp770
I200
g1
(g2
tp771
Rp772
I0
F0.9556493333333332
sI1
F1.1501466666666667
ssI100
g1
(g2
tp773
Rp774
I0
F0.7477263333333334
sI1
F1.035658
ssI10
g1
(g2
tp775
Rp776
I0
F0.22856166666666666
sI1
F0.5195336666666667
ssI500
g1
(g2
tp777
Rp778
I0
F1.6757900000000001
sI1
F1.83922
sssI8
g1
(g2
tp779
Rp780
I200
g1
(g2
tp781
Rp782
I0
F1.1723633333333332
sI1
F1.3485566666666668
ssI100
g1
(g2
tp783
Rp784
I0
F0.9756653333333333
sI1
F1.2085066666666666
ssI10
g1
(g2
tp785
Rp786
I0
F0.23602233333333333
sI1
F0.32092499999999996
ssI500
g1
(g2
tp787
Rp788
I0
F2.1111733333333333
sI1
F2.058923333333333
sssI4
g1
(g2
tp789
Rp790
I200
g1
(g2
tp791
Rp792
I0
F1.8161433333333334
sI1
F1.9525666666666666
ssI100
g1
(g2
tp793
Rp794
I0
F1.5658166666666666
sI1
F1.7363400000000002
ssI10
g1
(g2
tp795
Rp796
I0
F0.31072866666666665
sI1
F0.3607943333333334
ssI500
g1
(g2
tp797
Rp798
I0
F3.2299866666666666
sI1
F3.185333333333334
sssssI50
g1
(g2
tp799
Rp800
I200
g1
(g2
tp801
Rp802
I16
g1
(g2
tp803
Rp804
I200
g1
(g2
tp805
Rp806
I0
F4.585656666666666
sI1
F5.478670000000001
ssI100
g1
(g2
tp807
Rp808
I0
F3.562506666666667
sI1
F4.9596100000000005
ssI10
g1
(g2
tp809
Rp810
I0
F1.0471066666666666
sI1
F1.7252666666666665
ssI500
g1
(g2
tp811
Rp812
I0
F8.138236666666666
sI1
F8.686166666666667
sssI8
g1
(g2
tp813
Rp814
I200
g1
(g2
tp815
Rp816
I0
F5.603783333333333
sI1
F6.10673
ssI100
g1
(g2
tp817
Rp818
I0
F4.819756666666667
sI1
F5.597076666666666
ssI10
g1
(g2
tp819
Rp820
I0
F1.1033
sI1
F1.1546166666666666
ssI500
g1
(g2
tp821
Rp822
I0
F10.332266666666666
sI1
F9.9704
sssI4
g1
(g2
tp823
Rp824
I200
g1
(g2
tp825
Rp826
I0
F8.816663333333333
sI1
F9.201723333333334
ssI100
g1
(g2
tp827
Rp828
I0
F7.690136666666667
sI1
F8.26556
ssI10
g1
(g2
tp829
Rp830
I0
F1.4689733333333335
sI1
F1.66009
ssI500
g1
(g2
tp831
Rp832
I0
F15.731566666666668
sI1
F15.433433333333333
ssssI250
g1
(g2
tp833
Rp834
I16
g1
(g2
tp835
Rp836
I200
g1
(g2
tp837
Rp838
I0
F4.59065
sI1
F5.650976666666666
ssI100
g1
(g2
tp839
Rp840
I0
F3.519576666666667
sI1
F5.059453333333334
ssI10
g1
(g2
tp841
Rp842
I0
F1.0412933333333332
sI1
F1.4317799999999998
ssI500
g1
(g2
tp843
Rp844
I0
F8.062596666666666
sI1
F9.040930000000001
sssI8
g1
(g2
tp845
Rp846
I200
g1
(g2
tp847
Rp848
I0
F5.71715
sI1
F6.1043666666666665
ssI100
g1
(g2
tp849
Rp850
I0
F4.68058
sI1
F5.542856666666666
ssI10
g1
(g2
tp851
Rp852
I0
F1.0468
sI1
F1.1317766666666669
ssI500
g1
(g2
tp853
Rp854
I0
F10.235933333333334
sI1
F10.080033333333333
sssI4
g1
(g2
tp855
Rp856
I200
g1
(g2
tp857
Rp858
I0
F8.786096666666667
sI1
F9.098873333333334
ssI100
g1
(g2
tp859
Rp860
I0
F7.632243333333332
sI1
F8.168116666666668
ssI10
g1
(g2
tp861
Rp862
I0
F1.4644566666666667
sI1
F1.6292366666666667
ssI500
g1
(g2
tp863
Rp864
I0
F15.687633333333332
sI1
F15.455133333333334
ssssI100
g1
(g2
tp865
Rp866
I16
g1
(g2
tp867
Rp868
I200
g1
(g2
tp869
Rp870
I0
F4.68893
sI1
F5.8081
ssI100
g1
(g2
tp871
Rp872
I0
F3.54046
sI1
F4.959316666666667
ssI10
g1
(g2
tp873
Rp874
I0
F0.9840386666666667
sI1
F2.3537533333333336
ssI500
g1
(g2
tp875
Rp876
I0
F8.262356666666667
sI1
F8.955033333333333
sssI8
g1
(g2
tp877
Rp878
I200
g1
(g2
tp879
Rp880
I0
F5.80346
sI1
F6.47282
ssI100
g1
(g2
tp881
Rp882
I0
F4.747070000000001
sI1
F5.935796666666666
ssI10
g1
(g2
tp883
Rp884
I0
F1.048977
sI1
F1.43321
ssI500
g1
(g2
tp885
Rp886
I0
F10.5192
sI1
F10.320500000000001
sssI4
g1
(g2
tp887
Rp888
I200
g1
(g2
tp889
Rp890
I0
F8.97237
sI1
F9.67127
ssI100
g1
(g2
tp891
Rp892
I0
F7.801746666666666
sI1
F8.679856666666668
ssI10
g1
(g2
tp893
Rp894
I0
F1.5089966666666665
sI1
F1.7798699999999998
ssI500
g1
(g2
tp895
Rp896
I0
F16.0407
sI1
F15.831766666666667
ssssssg302
g1
(g2
tp897
Rp898
I200
g1
(g2
tp899
Rp900
I200
g1
(g2
tp901
Rp902
I16
g1
(g2
tp903
Rp904
I200
g1
(g2
tp905
Rp906
I0
F18.787166666666668
sI1
F18.918499999999998
ssI100
g1
(g2
tp907
Rp908
I0
F14.7042
sI1
F14.6913
ssI10
g1
(g2
tp909
Rp910
I0
F4.704103333333333
sI1
F4.663276666666667
ssI500
g1
(g2
tp911
Rp912
I0
F33.534533333333336
sI1
F33.89543333333334
sssI8
g1
(g2
tp913
Rp914
I200
g1
(g2
tp915
Rp916
I0
F23.4024
sI1
F24.059933333333333
ssI100
g1
(g2
tp917
Rp918
I0
F19.148600000000002
sI1
F19.042233333333332
ssI10
g1
(g2
tp919
Rp920
I0
F5.241993333333333
sI1
F5.223413333333333
ssI500
g1
(g2
tp921
Rp922
I0
F43.280100000000004
sI1
F42.99126666666666
sssI4
g1
(g2
tp923
Rp924
I200
g1
(g2
tp925
Rp926
I0
F36.612300000000005
sI1
F36.5311
ssI100
g1
(g2
tp927
Rp928
I0
F29.279066666666665
sI1
F29.66163333333333
ssI10
g1
(g2
tp929
Rp930
I0
F6.403943333333333
sI1
F6.27362
ssI500
g1
(g2
tp931
Rp932
I0
F67.29286666666667
sI1
F67.1489
ssssI250
g1
(g2
tp933
Rp934
I16
g1
(g2
tp935
Rp936
I200
g1
(g2
tp937
Rp938
I0
F18.9939
sI1
F18.839366666666667
ssI100
g1
(g2
tp939
Rp940
I0
F14.566233333333335
sI1
F14.868866666666667
ssI10
g1
(g2
tp941
Rp942
I0
F4.6704300000000005
sI1
F4.6636
ssI500
g1
(g2
tp943
Rp944
I0
F34.03693333333334
sI1
F33.9043
sssI8
g1
(g2
tp945
Rp946
I200
g1
(g2
tp947
Rp948
I0
F23.61566666666667
sI1
F23.339933333333335
ssI100
g1
(g2
tp949
Rp950
I0
F19.183066666666665
sI1
F18.99863333333333
ssI10
g1
(g2
tp951
Rp952
I0
F5.20812
sI1
F5.26755
ssI500
g1
(g2
tp953
Rp954
I0
F42.7567
sI1
F43.24046666666666
sssI4
g1
(g2
tp955
Rp956
I200
g1
(g2
tp957
Rp958
I0
F36.489466666666665
sI1
F36.810300000000005
ssI100
g1
(g2
tp959
Rp960
I0
F30.331433333333337
sI1
F29.439666666666668
ssI10
g1
(g2
tp961
Rp962
I0
F6.2392
sI1
F6.31468
ssI500
g1
(g2
tp963
Rp964
I0
F67.3384
sI1
F67.48026666666667
ssssI100
g1
(g2
tp965
Rp966
I16
g1
(g2
tp967
Rp968
I200
g1
(g2
tp969
Rp970
I0
F18.962100000000003
sI1
F18.923233333333332
ssI100
g1
(g2
tp971
Rp972
I0
F14.591866666666666
sI1
F14.550433333333332
ssI10
g1
(g2
tp973
Rp974
I0
F4.64523
sI1
F4.6362
ssI500
g1
(g2
tp975
Rp976
I0
F33.724399999999996
sI1
F33.6719
sssI8
g1
(g2
tp977
Rp978
I200
g1
(g2
tp979
Rp980
I0
F23.288566666666668
sI1
F23.508633333333332
ssI100
g1
(g2
tp981
Rp982
I0
F19.341333333333335
sI1
F19.424699999999998
ssI10
g1
(g2
tp983
Rp984
I0
F5.162116666666666
sI1
F5.265086666666666
ssI500
g1
(g2
tp985
Rp986
I0
F42.97343333333333
sI1
F43.119
sssI4
g1
(g2
tp987
Rp988
I200
g1
(g2
tp989
Rp990
I0
F36.96926666666666
sI1
F36.54696666666666
ssI100
g1
(g2
tp991
Rp992
I0
F29.4636
sI1
F30.248099999999997
ssI10
g1
(g2
tp993
Rp994
I0
F6.336996666666667
sI1
F6.324323333333333
ssI500
g1
(g2
tp995
Rp996
I0
F67.57546666666667
sI1
F67.28233333333333
sssssI10
g1
(g2
tp997
Rp998
I200
g1
(g2
tp999
Rp1000
I16
g1
(g2
tp1001
Rp1002
I200
g1
(g2
tp1003
Rp1004
I0
F0.9200803333333334
sI1
F0.9230646666666665
ssI100
g1
(g2
tp1005
Rp1006
I0
F0.7591359999999999
sI1
F0.7624373333333333
ssI10
g1
(g2
tp1007
Rp1008
I0
F0.243127
sI1
F0.243497
ssI500
g1
(g2
tp1009
Rp1010
I0
F1.6206166666666668
sI1
F1.63948
sssI8
g1
(g2
tp1011
Rp1012
I200
g1
(g2
tp1013
Rp1014
I0
F1.1441700000000001
sI1
F1.0969886666666666
ssI100
g1
(g2
tp1015
Rp1016
I0
F0.9613283333333333
sI1
F0.9389703333333334
ssI10
g1
(g2
tp1017
Rp1018
I0
F0.27148466666666665
sI1
F0.26066866666666666
ssI500
g1
(g2
tp1019
Rp1020
I0
F2.13951
sI1
F2.0998966666666665
sssI4
g1
(g2
tp1021
Rp1022
I200
g1
(g2
tp1023
Rp1024
I0
F1.7505766666666667
sI1
F1.7164866666666665
ssI100
g1
(g2
tp1025
Rp1026
I0
F1.5238699999999998
sI1
F1.4877
ssI10
g1
(g2
tp1027
Rp1028
I0
F0.32429
sI1
F0.32713733333333334
ssI500
g1
(g2
tp1029
Rp1030
I0
F3.26328
sI1
F3.3426766666666663
ssssI250
g1
(g2
tp1031
Rp1032
I16
g1
(g2
tp1033
Rp1034
I200
g1
(g2
tp1035
Rp1036
I0
F0.9125786666666666
sI1
F0.8915166666666666
ssI100
g1
(g2
tp1037
Rp1038
I0
F0.7486013333333333
sI1
F0.7112363333333334
ssI10
g1
(g2
tp1039
Rp1040
I0
F0.242204
sI1
F0.23904866666666666
ssI500
g1
(g2
tp1041
Rp1042
I0
F1.69395
sI1
F1.6420199999999998
sssI8
g1
(g2
tp1043
Rp1044
I200
g1
(g2
tp1045
Rp1046
I0
F1.1529966666666667
sI1
F1.1732799999999999
ssI100
g1
(g2
tp1047
Rp1048
I0
F0.9524056666666666
sI1
F0.958295
ssI10
g1
(g2
tp1049
Rp1050
I0
F0.29433366666666666
sI1
F0.27728966666666666
ssI500
g1
(g2
tp1051
Rp1052
I0
F2.12112
sI1
F2.1631066666666663
sssI4
g1
(g2
tp1053
Rp1054
I200
g1
(g2
tp1055
Rp1056
I0
F1.7379066666666667
sI1
F1.73236
ssI100
g1
(g2
tp1057
Rp1058
I0
F1.441576666666667
sI1
F1.43632
ssI10
g1
(g2
tp1059
Rp1060
I0
F0.3254513333333333
sI1
F0.32966333333333336
ssI500
g1
(g2
tp1061
Rp1062
I0
F3.375413333333333
sI1
F3.37248
ssssI100
g1
(g2
tp1063
Rp1064
I16
g1
(g2
tp1065
Rp1066
I200
g1
(g2
tp1067
Rp1068
I0
F0.9420813333333333
sI1
F0.9358463333333334
ssI100
g1
(g2
tp1069
Rp1070
I0
F0.7208716666666666
sI1
F0.7184253333333332
ssI10
g1
(g2
tp1071
Rp1072
I0
F0.22979800000000003
sI1
F0.23553633333333335
ssI500
g1
(g2
tp1073
Rp1074
I0
F1.6791133333333332
sI1
F1.6883766666666666
sssI8
g1
(g2
tp1075
Rp1076
I200
g1
(g2
tp1077
Rp1078
I0
F1.1725666666666668
sI1
F1.17411
ssI100
g1
(g2
tp1079
Rp1080
I0
F0.9366439999999999
sI1
F0.9607876666666667
ssI10
g1
(g2
tp1081
Rp1082
I0
F0.2740766666666667
sI1
F0.2715003333333334
ssI500
g1
(g2
tp1083
Rp1084
I0
F2.11394
sI1
F2.0681766666666666
sssI4
g1
(g2
tp1085
Rp1086
I200
g1
(g2
tp1087
Rp1088
I0
F1.7427700000000002
sI1
F1.7611733333333335
ssI100
g1
(g2
tp1089
Rp1090
I0
F1.3547866666666666
sI1
F1.4843133333333334
ssI10
g1
(g2
tp1091
Rp1092
I0
F0.32692499999999997
sI1
F0.32745966666666665
ssI500
g1
(g2
tp1093
Rp1094
I0
F3.306203333333334
sI1
F3.384093333333333
sssssI50
g1
(g2
tp1095
Rp1096
I200
g1
(g2
tp1097
Rp1098
I16
g1
(g2
tp1099
Rp1100
I200
g1
(g2
tp1101
Rp1102
I0
F4.696766666666667
sI1
F4.635213333333333
ssI100
g1
(g2
tp1103
Rp1104
I0
F3.6905799999999993
sI1
F3.72627
ssI10
g1
(g2
tp1105
Rp1106
I0
F1.1624833333333333
sI1
F1.1791133333333335
ssI500
g1
(g2
tp1107
Rp1108
I0
F8.452966666666667
sI1
F8.472769999999999
sssI8
g1
(g2
tp1109
Rp1110
I200
g1
(g2
tp1111
Rp1112
I0
F5.844089999999999
sI1
F5.7551533333333325
ssI100
g1
(g2
tp1113
Rp1114
I0
F4.840153333333333
sI1
F4.95009
ssI10
g1
(g2
tp1115
Rp1116
I0
F1.2957966666666667
sI1
F1.2990966666666666
ssI500
g1
(g2
tp1117
Rp1118
I0
F10.750166666666667
sI1
F10.728266666666665
sssI4
g1
(g2
tp1119
Rp1120
I200
g1
(g2
tp1121
Rp1122
I0
F9.044723333333332
sI1
F8.96289
ssI100
g1
(g2
tp1123
Rp1124
I0
F7.5672266666666665
sI1
F7.201443333333334
ssI10
g1
(g2
tp1125
Rp1126
I0
F1.5729966666666666
sI1
F1.5712166666666665
ssI500
g1
(g2
tp1127
Rp1128
I0
F16.634733333333333
sI1
F16.7572
ssssI250
g1
(g2
tp1129
Rp1130
I16
g1
(g2
tp1131
Rp1132
I200
g1
(g2
tp1133
Rp1134
I0
F4.767623333333333
sI1
F4.712836666666667
ssI100
g1
(g2
tp1135
Rp1136
I0
F3.6790033333333336
sI1
F3.6274266666666666
ssI10
g1
(g2
tp1137
Rp1138
I0
F1.1635199999999999
sI1
F1.1762866666666667
ssI500
g1
(g2
tp1139
Rp1140
I0
F8.451256666666668
sI1
F8.391536666666667
sssI8
g1
(g2
tp1141
Rp1142
I200
g1
(g2
tp1143
Rp1144
I0
F5.836616666666667
sI1
F5.8084999999999996
ssI100
g1
(g2
tp1145
Rp1146
I0
F4.772873333333334
sI1
F4.743733333333333
ssI10
g1
(g2
tp1147
Rp1148
I0
F1.3373666666666668
sI1
F1.3140633333333334
ssI500
g1
(g2
tp1149
Rp1150
I0
F10.665533333333334
sI1
F10.894266666666667
sssI4
g1
(g2
tp1151
Rp1152
I200
g1
(g2
tp1153
Rp1154
I0
F9.04405
sI1
F9.213906666666666
ssI100
g1
(g2
tp1155
Rp1156
I0
F7.42269
sI1
F7.251933333333334
ssI10
g1
(g2
tp1157
Rp1158
I0
F1.5819766666666666
sI1
F1.5958966666666665
ssI500
g1
(g2
tp1159
Rp1160
I0
F16.922533333333334
sI1
F16.619866666666667
ssssI100
g1
(g2
tp1161
Rp1162
I16
g1
(g2
tp1163
Rp1164
I200
g1
(g2
tp1165
Rp1166
I0
F4.795093333333333
sI1
F4.7610600000000005
ssI100
g1
(g2
tp1167
Rp1168
I0
F3.680266666666667
sI1
F3.6050566666666666
ssI10
g1
(g2
tp1169
Rp1170
I0
F1.1821733333333333
sI1
F1.1641866666666667
ssI500
g1
(g2
tp1171
Rp1172
I0
F8.334629999999999
sI1
F8.535993333333332
sssI8
g1
(g2
tp1173
Rp1174
I200
g1
(g2
tp1175
Rp1176
I0
F5.82299
sI1
F5.925249999999999
ssI100
g1
(g2
tp1177
Rp1178
I0
F4.84361
sI1
F4.860943333333333
ssI10
g1
(g2
tp1179
Rp1180
I0
F1.3192833333333334
sI1
F1.3016966666666665
ssI500
g1
(g2
tp1181
Rp1182
I0
F10.6911
sI1
F10.801066666666665
sssI4
g1
(g2
tp1183
Rp1184
I200
g1
(g2
tp1185
Rp1186
I0
F8.894160000000001
sI1
F9.107346666666666
ssI100
g1
(g2
tp1187
Rp1188
I0
F7.459569999999999
sI1
F7.206463333333333
ssI10
g1
(g2
tp1189
Rp1190
I0
F1.6387266666666667
sI1
F1.5708233333333332
ssI500
g1
(g2
tp1191
Rp1192
I0
F16.872433333333333
sI1
F16.8741
ssssssag1
(g2
tp1193
Rp1194
g5
g1
(g2
tp1195
Rp1196
I200
g1
(g2
tp1197
Rp1198
I200
g1
(g2
tp1199
Rp1200
I16
g1
(g2
tp1201
Rp1202
I200
g1
(g2
tp1203
Rp1204
I0
F18.4889
sI1
F22.462366666666668
ssI100
g1
(g2
tp1205
Rp1206
I0
F14.241133333333332
sI1
F19.883633333333332
ssI10
g1
(g2
tp1207
Rp1208
I0
F4.269366666666667
sI1
F6.920963333333334
ssI500
g1
(g2
tp1209
Rp1210
I0
F32.74353333333333
sI1
F35.436933333333336
sssI8
g1
(g2
tp1211
Rp1212
I200
g1
(g2
tp1213
Rp1214
I0
F22.90556666666667
sI1
F24.506
ssI100
g1
(g2
tp1215
Rp1216
I0
F19.2406
sI1
F22.3832
ssI10
g1
(g2
tp1217
Rp1218
I0
F4.4207399999999994
sI1
F4.780173333333334
ssI500
g1
(g2
tp1219
Rp1220
I0
F41.349766666666675
sI1
F40.64
sssI4
g1
(g2
tp1221
Rp1222
I200
g1
(g2
tp1223
Rp1224
I0
F35.40683333333333
sI1
F36.95936666666666
ssI100
g1
(g2
tp1225
Rp1226
I0
F30.823499999999996
sI1
F33.170966666666665
ssI10
g1
(g2
tp1227
Rp1228
I0
F6.017040000000001
sI1
F6.678323333333334
ssI500
g1
(g2
tp1229
Rp1230
I0
F63.193666666666665
sI1
F62.0508
ssssI250
g1
(g2
tp1231
Rp1232
I16
g1
(g2
tp1233
Rp1234
I200
g1
(g2
tp1235
Rp1236
I0
F18.574966666666665
sI1
F22.3768
ssI100
g1
(g2
tp1237
Rp1238
I0
F14.143099999999999
sI1
F19.7547
ssI10
g1
(g2
tp1239
Rp1240
I0
F4.268246666666666
sI1
F5.595133333333333
ssI500
g1
(g2
tp1241
Rp1242
I0
F32.571333333333335
sI1
F36.38903333333334
sssI8
g1
(g2
tp1243
Rp1244
I200
g1
(g2
tp1245
Rp1246
I0
F22.858166666666666
sI1
F24.524
ssI100
g1
(g2
tp1247
Rp1248
I0
F19.053300000000004
sI1
F22.355333333333334
ssI10
g1
(g2
tp1249
Rp1250
I0
F4.081416666666667
sI1
F4.561533333333333
ssI500
g1
(g2
tp1251
Rp1252
I0
F41.03446666666667
sI1
F40.623333333333335
sssI4
g1
(g2
tp1253
Rp1254
I200
g1
(g2
tp1255
Rp1256
I0
F35.2181
sI1
F36.55846666666667
ssI100
g1
(g2
tp1257
Rp1258
I0
F30.645766666666663
sI1
F32.90226666666667
ssI10
g1
(g2
tp1259
Rp1260
I0
F6.09916
sI1
F6.710163333333333
ssI500
g1
(g2
tp1261
Rp1262
I0
F62.68036666666668
sI1
F61.8244
ssssI100
g1
(g2
tp1263
Rp1264
I16
g1
(g2
tp1265
Rp1266
I200
g1
(g2
tp1267
Rp1268
I0
F18.750733333333333
sI1
F23.036266666666666
ssI100
g1
(g2
tp1269
Rp1270
I0
F14.468066666666667
sI1
F20.65866666666667
ssI10
g1
(g2
tp1271
Rp1272
I0
F4.266753333333333
sI1
F10.07051
ssI500
g1
(g2
tp1273
Rp1274
I0
F33.30466666666666
sI1
F35.64783333333333
sssI8
g1
(g2
tp1275
Rp1276
I200
g1
(g2
tp1277
Rp1278
I0
F23.322066666666668
sI1
F25.9049
ssI100
g1
(g2
tp1279
Rp1280
I0
F19.260166666666667
sI1
F23.645766666666663
ssI10
g1
(g2
tp1281
Rp1282
I0
F4.131033333333334
sI1
F6.015173333333333
ssI500
g1
(g2
tp1283
Rp1284
I0
F42.11776666666666
sI1
F41.1347
sssI4
g1
(g2
tp1285
Rp1286
I200
g1
(g2
tp1287
Rp1288
I0
F36.023066666666665
sI1
F38.67366666666667
ssI100
g1
(g2
tp1289
Rp1290
I0
F31.291533333333334
sI1
F34.8222
ssI10
g1
(g2
tp1291
Rp1292
I0
F6.121833333333332
sI1
F7.318936666666667
ssI500
g1
(g2
tp1293
Rp1294
I0
F64.19590000000001
sI1
F63.40623333333334
sssssI10
g1
(g2
tp1295
Rp1296
I200
g1
(g2
tp1297
Rp1298
I16
g1
(g2
tp1299
Rp1300
I200
g1
(g2
tp1301
Rp1302
I0
F1.1287066666666667
sI1
F1.3488566666666666
ssI100
g1
(g2
tp1303
Rp1304
I0
F0.9204496666666667
sI1
F1.2156799999999999
ssI10
g1
(g2
tp1305
Rp1306
I0
F0.4185046666666667
sI1
F0.5445733333333332
ssI500
g1
(g2
tp1307
Rp1308
I0
F1.8224966666666669
sI1
F2.07193
sssI8
g1
(g2
tp1309
Rp1310
I200
g1
(g2
tp1311
Rp1312
I0
F1.34041
sI1
F1.4639
ssI100
g1
(g2
tp1313
Rp1314
I0
F1.1739733333333333
sI1
F1.32265
ssI10
g1
(g2
tp1315
Rp1316
I0
F0.4170836666666667
sI1
F0.4928353333333333
ssI500
g1
(g2
tp1317
Rp1318
I0
F2.25225
sI1
F2.2498333333333336
sssI4
g1
(g2
tp1319
Rp1320
I200
g1
(g2
tp1321
Rp1322
I0
F1.97786
sI1
F2.053456666666667
ssI100
g1
(g2
tp1323
Rp1324
I0
F1.7428766666666666
sI1
F1.8551266666666668
ssI10
g1
(g2
tp1325
Rp1326
I0
F0.505475
sI1
F0.54705
ssI500
g1
(g2
tp1327
Rp1328
I0
F3.3724966666666667
sI1
F3.33405
ssssI250
g1
(g2
tp1329
Rp1330
I16
g1
(g2
tp1331
Rp1332
I200
g1
(g2
tp1333
Rp1334
I0
F1.12755
sI1
F1.28447
ssI100
g1
(g2
tp1335
Rp1336
I0
F0.901868
sI1
F1.24818
ssI10
g1
(g2
tp1337
Rp1338
I0
F0.40776799999999996
sI1
F0.5379353333333333
ssI500
g1
(g2
tp1339
Rp1340
I0
F1.8346466666666668
sI1
F2.0468066666666664
sssI8
g1
(g2
tp1341
Rp1342
I200
g1
(g2
tp1343
Rp1344
I0
F1.35335
sI1
F1.4883766666666667
ssI100
g1
(g2
tp1345
Rp1346
I0
F1.15835
sI1
F1.33671
ssI10
g1
(g2
tp1347
Rp1348
I0
F0.41085299999999997
sI1
F0.451551
ssI500
g1
(g2
tp1349
Rp1350
I0
F2.2890433333333333
sI1
F2.2926900000000003
sssI4
g1
(g2
tp1351
Rp1352
I200
g1
(g2
tp1353
Rp1354
I0
F1.9634166666666666
sI1
F2.0389633333333337
ssI100
g1
(g2
tp1355
Rp1356
I0
F1.7330966666666665
sI1
F1.8479966666666667
ssI10
g1
(g2
tp1357
Rp1358
I0
F0.508436
sI1
F0.535014
ssI500
g1
(g2
tp1359
Rp1360
I0
F3.3574366666666666
sI1
F3.3499766666666666
ssssI100
g1
(g2
tp1361
Rp1362
I16
g1
(g2
tp1363
Rp1364
I200
g1
(g2
tp1365
Rp1366
I0
F1.16977
sI1
F1.3659266666666667
ssI100
g1
(g2
tp1367
Rp1368
I0
F0.9623946666666668
sI1
F1.2503066666666667
ssI10
g1
(g2
tp1369
Rp1370
I0
F0.4434213333333333
sI1
F0.733874
ssI500
g1
(g2
tp1371
Rp1372
I0
F1.8910500000000001
sI1
F2.052286666666667
sssI8
g1
(g2
tp1373
Rp1374
I200
g1
(g2
tp1375
Rp1376
I0
F1.3837566666666667
sI1
F1.5584133333333332
ssI100
g1
(g2
tp1377
Rp1378
I0
F1.1873133333333332
sI1
F1.4182233333333334
ssI10
g1
(g2
tp1379
Rp1380
I0
F0.44513766666666665
sI1
F0.529548
ssI500
g1
(g2
tp1381
Rp1382
I0
F2.3213933333333334
sI1
F2.26942
sssI4
g1
(g2
tp1383
Rp1384
I200
g1
(g2
tp1385
Rp1386
I0
F2.022816666666667
sI1
F2.15683
ssI100
g1
(g2
tp1387
Rp1388
I0
F1.7714533333333333
sI1
F1.9398366666666667
ssI10
g1
(g2
tp1389
Rp1390
I0
F0.5166446666666666
sI1
F0.5656403333333334
ssI500
g1
(g2
tp1391
Rp1392
I0
F3.43656
sI1
F3.3903733333333332
sssssI50
g1
(g2
tp1393
Rp1394
I200
g1
(g2
tp1395
Rp1396
I16
g1
(g2
tp1397
Rp1398
I200
g1
(g2
tp1399
Rp1400
I0
F4.79155
sI1
F5.685100000000001
ssI100
g1
(g2
tp1401
Rp1402
I0
F3.7661366666666667
sI1
F5.166323333333334
ssI10
g1
(g2
tp1403
Rp1404
I0
F1.2538366666666667
sI1
F1.9311833333333333
ssI500
g1
(g2
tp1405
Rp1406
I0
F8.34332
sI1
F8.891816666666665
sssI8
g1
(g2
tp1407
Rp1408
I200
g1
(g2
tp1409
Rp1410
I0
F5.80754
sI1
F6.310373333333334
ssI100
g1
(g2
tp1411
Rp1412
I0
F5.02382
sI1
F5.800406666666667
ssI10
g1
(g2
tp1413
Rp1414
I0
F1.3073633333333332
sI1
F1.3581066666666668
ssI500
g1
(g2
tp1415
Rp1416
I0
F10.534866666666666
sI1
F10.173466666666668
sssI4
g1
(g2
tp1417
Rp1418
I200
g1
(g2
tp1419
Rp1420
I0
F9.015590000000001
sI1
F9.399756666666667
ssI100
g1
(g2
tp1421
Rp1422
I0
F7.887196666666667
sI1
F8.464336666666666
ssI10
g1
(g2
tp1423
Rp1424
I0
F1.6685133333333333
sI1
F1.8601566666666667
ssI500
g1
(g2
tp1425
Rp1426
I0
F15.930933333333334
sI1
F15.6334
ssssI250
g1
(g2
tp1427
Rp1428
I16
g1
(g2
tp1429
Rp1430
I200
g1
(g2
tp1431
Rp1432
I0
F4.794966666666667
sI1
F5.856656666666666
ssI100
g1
(g2
tp1433
Rp1434
I0
F3.7235633333333333
sI1
F5.2651200000000005
ssI10
g1
(g2
tp1435
Rp1436
I0
F1.2468700000000001
sI1
F1.63856
ssI500
g1
(g2
tp1437
Rp1438
I0
F8.26656
sI1
F9.245703333333333
sssI8
g1
(g2
tp1439
Rp1440
I200
g1
(g2
tp1441
Rp1442
I0
F5.918183333333334
sI1
F6.306286666666666
ssI100
g1
(g2
tp1443
Rp1444
I0
F4.882033333333333
sI1
F5.7431633333333325
ssI10
g1
(g2
tp1445
Rp1446
I0
F1.2486833333333334
sI1
F1.3332466666666667
ssI500
g1
(g2
tp1447
Rp1448
I0
F10.436566666666666
sI1
F10.281166666666666
sssI4
g1
(g2
tp1449
Rp1450
I200
g1
(g2
tp1451
Rp1452
I0
F8.984256666666667
sI1
F9.29685
ssI100
g1
(g2
tp1453
Rp1454
I0
F7.830346666666666
sI1
F8.366533333333331
ssI10
g1
(g2
tp1455
Rp1456
I0
F1.6662299999999999
sI1
F1.82831
ssI500
g1
(g2
tp1457
Rp1458
I0
F15.886433333333335
sI1
F15.654266666666667
ssssI100
g1
(g2
tp1459
Rp1460
I16
g1
(g2
tp1461
Rp1462
I200
g1
(g2
tp1463
Rp1464
I0
F4.903943333333333
sI1
F6.023036666666666
ssI100
g1
(g2
tp1465
Rp1466
I0
F3.7546233333333334
sI1
F5.17447
ssI10
g1
(g2
tp1467
Rp1468
I0
F1.1974
sI1
F2.5677533333333336
ssI500
g1
(g2
tp1469
Rp1470
I0
F8.477743333333335
sI1
F9.170703333333334
sssI8
g1
(g2
tp1471
Rp1472
I200
g1
(g2
tp1473
Rp1474
I0
F6.015013333333333
sI1
F6.683496666666667
ssI100
g1
(g2
tp1475
Rp1476
I0
F4.958609999999999
sI1
F6.159386666666666
ssI10
g1
(g2
tp1477
Rp1478
I0
F1.2591866666666667
sI1
F1.6428500000000001
ssI500
g1
(g2
tp1479
Rp1480
I0
F10.728700000000002
sI1
F10.529833333333334
sssI4
g1
(g2
tp1481
Rp1482
I200
g1
(g2
tp1483
Rp1484
I0
F9.177439999999999
sI1
F9.876723333333333
ssI100
g1
(g2
tp1485
Rp1486
I0
F8.006186666666666
sI1
F8.884206666666666
ssI10
g1
(g2
tp1487
Rp1488
I0
F1.71586
sI1
F1.9859133333333332
ssI500
g1
(g2
tp1489
Rp1490
I0
F16.246566666666666
sI1
F16.0381
ssssssg302
g1
(g2
tp1491
Rp1492
I200
g1
(g2
tp1493
Rp1494
I200
g1
(g2
tp1495
Rp1496
I16
g1
(g2
tp1497
Rp1498
I200
g1
(g2
tp1499
Rp1500
I0
F18.788666666666668
sI1
F18.920066666666667
ssI100
g1
(g2
tp1501
Rp1502
I0
F14.705833333333333
sI1
F14.692933333333334
ssI10
g1
(g2
tp1503
Rp1504
I0
F4.705686666666666
sI1
F4.664866666666667
ssI500
g1
(g2
tp1505
Rp1506
I0
F33.53616666666667
sI1
F33.897
sssI8
g1
(g2
tp1507
Rp1508
I200
g1
(g2
tp1509
Rp1510
I0
F23.403933333333338
sI1
F24.061566666666664
ssI100
g1
(g2
tp1511
Rp1512
I0
F19.150233333333333
sI1
F19.043833333333335
ssI10
g1
(g2
tp1513
Rp1514
I0
F5.243603333333334
sI1
F5.224973333333334
ssI500
g1
(g2
tp1515
Rp1516
I0
F43.281666666666666
sI1
F42.99280000000001
sssI4
g1
(g2
tp1517
Rp1518
I200
g1
(g2
tp1519
Rp1520
I0
F36.613933333333335
sI1
F36.53273333333334
ssI100
g1
(g2
tp1521
Rp1522
I0
F29.2807
sI1
F29.66326666666667
ssI10
g1
(g2
tp1523
Rp1524
I0
F6.405576666666668
sI1
F6.275283333333333
ssI500
g1
(g2
tp1525
Rp1526
I0
F67.29449999999999
sI1
F67.15043333333332
ssssI250
g1
(g2
tp1527
Rp1528
I16
g1
(g2
tp1529
Rp1530
I200
g1
(g2
tp1531
Rp1532
I0
F18.9955
sI1
F18.840933333333336
ssI100
g1
(g2
tp1533
Rp1534
I0
F14.567833333333333
sI1
F14.870399999999998
ssI10
g1
(g2
tp1535
Rp1536
I0
F4.671966666666666
sI1
F4.665216666666667
ssI500
g1
(g2
tp1537
Rp1538
I0
F34.038466666666665
sI1
F33.9059
sssI8
g1
(g2
tp1539
Rp1540
I200
g1
(g2
tp1541
Rp1542
I0
F23.61723333333333
sI1
F23.34153333333333
ssI100
g1
(g2
tp1543
Rp1544
I0
F19.184633333333334
sI1
F19.000199999999996
ssI10
g1
(g2
tp1545
Rp1546
I0
F5.20972
sI1
F5.269106666666667
ssI500
g1
(g2
tp1547
Rp1548
I0
F42.758333333333326
sI1
F43.242066666666666
sssI4
g1
(g2
tp1549
Rp1550
I200
g1
(g2
tp1551
Rp1552
I0
F36.4912
sI1
F36.8119
ssI100
g1
(g2
tp1553
Rp1554
I0
F30.333066666666667
sI1
F29.441266666666667
ssI10
g1
(g2
tp1555
Rp1556
I0
F6.240776666666666
sI1
F6.316256666666667
ssI500
g1
(g2
tp1557
Rp1558
I0
F67.33996666666667
sI1
F67.48183333333334
ssssI100
g1
(g2
tp1559
Rp1560
I16
g1
(g2
tp1561
Rp1562
I200
g1
(g2
tp1563
Rp1564
I0
F18.9637
sI1
F18.924766666666667
ssI100
g1
(g2
tp1565
Rp1566
I0
F14.593366666666666
sI1
F14.552066666666667
ssI10
g1
(g2
tp1567
Rp1568
I0
F4.646836666666666
sI1
F4.63778
ssI500
g1
(g2
tp1569
Rp1570
I0
F33.726
sI1
F33.673433333333335
sssI8
g1
(g2
tp1571
Rp1572
I200
g1
(g2
tp1573
Rp1574
I0
F23.290133333333333
sI1
F23.51036666666667
ssI100
g1
(g2
tp1575
Rp1576
I0
F19.34293333333333
sI1
F19.426366666666663
ssI10
g1
(g2
tp1577
Rp1578
I0
F5.16371
sI1
F5.266673333333333
ssI500
g1
(g2
tp1579
Rp1580
I0
F42.975033333333336
sI1
F43.12063333333333
sssI4
g1
(g2
tp1581
Rp1582
I200
g1
(g2
tp1583
Rp1584
I0
F36.97086666666667
sI1
F36.5486
ssI100
g1
(g2
tp1585
Rp1586
I0
F29.46513333333333
sI1
F30.249666666666666
ssI10
g1
(g2
tp1587
Rp1588
I0
F6.33856
sI1
F6.3259066666666675
ssI500
g1
(g2
tp1589
Rp1590
I0
F67.577
sI1
F67.28393333333334
sssssI10
g1
(g2
tp1591
Rp1592
I200
g1
(g2
tp1593
Rp1594
I16
g1
(g2
tp1595
Rp1596
I200
g1
(g2
tp1597
Rp1598
I0
F0.921682
sI1
F0.9246446666666667
ssI100
g1
(g2
tp1599
Rp1600
I0
F0.7607076666666667
sI1
F0.764014
ssI10
g1
(g2
tp1601
Rp1602
I0
F0.24466933333333332
sI1
F0.245092
ssI500
g1
(g2
tp1603
Rp1604
I0
F1.6221599999999998
sI1
F1.6411200000000001
sssI8
g1
(g2
tp1605
Rp1606
I200
g1
(g2
tp1607
Rp1608
I0
F1.14579
sI1
F1.0985733333333334
ssI100
g1
(g2
tp1609
Rp1610
I0
F0.9628663333333333
sI1
F0.9406086666666668
ssI10
g1
(g2
tp1611
Rp1612
I0
F0.27306199999999997
sI1
F0.2622663333333333
ssI500
g1
(g2
tp1613
Rp1614
I0
F2.1411533333333335
sI1
F2.1015200000000003
sssI4
g1
(g2
tp1615
Rp1616
I200
g1
(g2
tp1617
Rp1618
I0
F1.7522066666666667
sI1
F1.71803
ssI100
g1
(g2
tp1619
Rp1620
I0
F1.525426666666667
sI1
F1.48931
ssI10
g1
(g2
tp1621
Rp1622
I0
F0.32589733333333337
sI1
F0.32876533333333335
ssI500
g1
(g2
tp1623
Rp1624
I0
F3.26486
sI1
F3.3442633333333336
ssssI250
g1
(g2
tp1625
Rp1626
I16
g1
(g2
tp1627
Rp1628
I200
g1
(g2
tp1629
Rp1630
I0
F0.9141499999999999
sI1
F0.8931086666666667
ssI100
g1
(g2
tp1631
Rp1632
I0
F0.750257
sI1
F0.7128453333333334
ssI10
g1
(g2
tp1633
Rp1634
I0
F0.24375366666666665
sI1
F0.24063766666666667
ssI500
g1
(g2
tp1635
Rp1636
I0
F1.69553
sI1
F1.64361
sssI8
g1
(g2
tp1637
Rp1638
I200
g1
(g2
tp1639
Rp1640
I0
F1.1546166666666668
sI1
F1.1748333333333332
ssI100
g1
(g2
tp1641
Rp1642
I0
F0.9539799999999999
sI1
F0.9599266666666667
ssI10
g1
(g2
tp1643
Rp1644
I0
F0.295882
sI1
F0.27889633333333336
ssI500
g1
(g2
tp1645
Rp1646
I0
F2.1227466666666666
sI1
F2.1646900000000002
sssI4
g1
(g2
tp1647
Rp1648
I200
g1
(g2
tp1649
Rp1650
I0
F1.73953
sI1
F1.7339833333333334
ssI100
g1
(g2
tp1651
Rp1652
I0
F1.4432033333333332
sI1
F1.4379166666666665
ssI10
g1
(g2
tp1653
Rp1654
I0
F0.3270916666666666
sI1
F0.33128700000000005
ssI500
g1
(g2
tp1655
Rp1656
I0
F3.3769966666666664
sI1
F3.37407
ssssI100
g1
(g2
tp1657
Rp1658
I16
g1
(g2
tp1659
Rp1660
I200
g1
(g2
tp1661
Rp1662
I0
F0.9437086666666668
sI1
F0.937443
ssI100
g1
(g2
tp1663
Rp1664
I0
F0.7224066666666666
sI1
F0.7201083333333332
ssI10
g1
(g2
tp1665
Rp1666
I0
F0.23137166666666664
sI1
F0.23717200000000002
ssI500
g1
(g2
tp1667
Rp1668
I0
F1.6807100000000001
sI1
F1.6899333333333333
sssI8
g1
(g2
tp1669
Rp1670
I200
g1
(g2
tp1671
Rp1672
I0
F1.1741566666666667
sI1
F1.17565
ssI100
g1
(g2
tp1673
Rp1674
I0
F0.9382420000000001
sI1
F0.9623353333333333
ssI10
g1
(g2
tp1675
Rp1676
I0
F0.275691
sI1
F0.27313366666666666
ssI500
g1
(g2
tp1677
Rp1678
I0
F2.11547
sI1
F2.06976
sssI4
g1
(g2
tp1679
Rp1680
I200
g1
(g2
tp1681
Rp1682
I0
F1.7444933333333335
sI1
F1.76279
ssI100
g1
(g2
tp1683
Rp1684
I0
F1.3563833333333335
sI1
F1.4859366666666667
ssI10
g1
(g2
tp1685
Rp1686
I0
F0.328512
sI1
F0.3290773333333334
ssI500
g1
(g2
tp1687
Rp1688
I0
F3.3078033333333337
sI1
F3.3856366666666666
sssssI50
g1
(g2
tp1689
Rp1690
I200
g1
(g2
tp1691
Rp1692
I16
g1
(g2
tp1693
Rp1694
I200
g1
(g2
tp1695
Rp1696
I0
F4.69832
sI1
F4.636803333333334
ssI100
g1
(g2
tp1697
Rp1698
I0
F3.6920900000000003
sI1
F3.72787
ssI10
g1
(g2
tp1699
Rp1700
I0
F1.1641466666666667
sI1
F1.1807733333333335
ssI500
g1
(g2
tp1701
Rp1702
I0
F8.454563333333333
sI1
F8.474396666666665
sssI8
g1
(g2
tp1703
Rp1704
I200
g1
(g2
tp1705
Rp1706
I0
F5.845636666666667
sI1
F5.756713333333334
ssI100
g1
(g2
tp1707
Rp1708
I0
F4.841716666666667
sI1
F4.95167
ssI10
g1
(g2
tp1709
Rp1710
I0
F1.2973866666666665
sI1
F1.3007066666666667
ssI500
g1
(g2
tp1711
Rp1712
I0
F10.751766666666667
sI1
F10.7299
sssI4
g1
(g2
tp1713
Rp1714
I200
g1
(g2
tp1715
Rp1716
I0
F9.046356666666666
sI1
F8.964506666666667
ssI100
g1
(g2
tp1717
Rp1718
I0
F7.568886666666667
sI1
F7.20301
ssI10
g1
(g2
tp1719
Rp1720
I0
F1.5745433333333334
sI1
F1.5728
ssI500
g1
(g2
tp1721
Rp1722
I0
F16.636333333333333
sI1
F16.7588
ssssI250
g1
(g2
tp1723
Rp1724
I16
g1
(g2
tp1725
Rp1726
I200
g1
(g2
tp1727
Rp1728
I0
F4.76919
sI1
F4.7144466666666665
ssI100
g1
(g2
tp1729
Rp1730
I0
F3.6805566666666665
sI1
F3.629013333333333
ssI10
g1
(g2
tp1731
Rp1732
I0
F1.1651299999999998
sI1
F1.1779366666666666
ssI500
g1
(g2
tp1733
Rp1734
I0
F8.452869999999999
sI1
F8.39306
sssI8
g1
(g2
tp1735
Rp1736
I200
g1
(g2
tp1737
Rp1738
I0
F5.838163333333334
sI1
F5.81008
ssI100
g1
(g2
tp1739
Rp1740
I0
F4.7744800000000005
sI1
F4.745349999999999
ssI10
g1
(g2
tp1741
Rp1742
I0
F1.33894
sI1
F1.3156766666666668
ssI500
g1
(g2
tp1743
Rp1744
I0
F10.667133333333334
sI1
F10.895933333333334
sssI4
g1
(g2
tp1745
Rp1746
I200
g1
(g2
tp1747
Rp1748
I0
F9.045679999999999
sI1
F9.21551
ssI100
g1
(g2
tp1749
Rp1750
I0
F7.424323333333334
sI1
F7.25354
ssI10
g1
(g2
tp1751
Rp1752
I0
F1.5836233333333334
sI1
F1.5975033333333333
ssI500
g1
(g2
tp1753
Rp1754
I0
F16.924133333333334
sI1
F16.621433333333332
ssssI100
g1
(g2
tp1755
Rp1756
I16
g1
(g2
tp1757
Rp1758
I200
g1
(g2
tp1759
Rp1760
I0
F4.79663
sI1
F4.76264
ssI100
g1
(g2
tp1761
Rp1762
I0
F3.6818733333333333
sI1
F3.6066133333333332
ssI10
g1
(g2
tp1763
Rp1764
I0
F1.18381
sI1
F1.1657666666666666
ssI500
g1
(g2
tp1765
Rp1766
I0
F8.336233333333332
sI1
F8.537586666666666
sssI8
g1
(g2
tp1767
Rp1768
I200
g1
(g2
tp1769
Rp1770
I0
F5.824566666666667
sI1
F5.9268833333333335
ssI100
g1
(g2
tp1771
Rp1772
I0
F4.845210000000001
sI1
F4.862566666666666
ssI10
g1
(g2
tp1773
Rp1774
I0
F1.32091
sI1
F1.3033566666666667
ssI500
g1
(g2
tp1775
Rp1776
I0
F10.692733333333335
sI1
F10.802666666666667
sssI4
g1
(g2
tp1777
Rp1778
I200
g1
(g2
tp1779
Rp1780
I0
F8.895693333333332
sI1
F9.10891
ssI100
g1
(g2
tp1781
Rp1782
I0
F7.461196666666666
sI1
F7.208053333333333
ssI10
g1
(g2
tp1783
Rp1784
I0
F1.6403633333333332
sI1
F1.5724366666666665
ssI500
g1
(g2
tp1785
Rp1786
I0
F16.874033333333333
sI1
F16.875666666666667
ssssssa.