(lp0
ccollections
defaultdict
p1
(c__main__
tree
p2
tp3
Rp4
S'cyc_word_embeddings_cyc'
p5
g1
(g2
tp6
Rp7
I200
g1
(g2
tp8
Rp9
I300
g1
(g2
tp10
Rp11
I8
g1
(g2
tp12
Rp13
I30
g1
(g2
tp14
Rp15
I1
(lp16
F4.974545242152846
aF0.1390334731462442
aF0.0051323001182878485
aF0.0002658262738420881
aF2.441296719645897e-05
aF5.969501534507755e-06
aF2.8142475779679556e-06
aF1.6186349707172803e-06
aF9.85898580662251e-07
aF6.142434127619399e-07
aF3.871084189830247e-07
aF2.4559505314752733e-07
aF1.5646298216519464e-07
aF9.994808153219347e-08
aF6.396091928362492e-08
aF4.0980583920247243e-08
aF2.6278244201398204e-08
aF1.6859930404379535e-08
aF1.0821292082984265e-08
aF6.947257116350531e-09
aF4.4608960293546995e-09
aF2.8647072587254788e-09
aF1.839800005665239e-09
aF1.1816298433403122e-09
aF7.58935345502971e-10
aF4.874558034094454e-10
aF3.130900766862897e-10
aF2.0109656567928727e-10
aF1.2916351395367005e-10
aF8.296100968012418e-11
aF5.3285212931315265e-11
aF3.422454290845367e-11
aF2.1981980653463505e-11
aF1.4118684753815153e-11
aF9.068177614043505e-12
aF5.824307343796444e-12
aF3.740823236836585e-12
aF2.4026409514467717e-12
aF1.5431547886875176e-12
aF9.911266823951953e-13
aF6.365727276779665e-13
aF4.0885205176887994e-13
aF2.6259335051907715e-13
aF1.6865559106595811e-13
aF1.0832216002045891e-13
aF6.95718409189281e-14
aF4.468372292020353e-14
aF2.869887843131497e-14
aF1.8432330977792332e-14
aF1.1838464944181488e-14
aF7.60344400430819e-15
aF4.883432222926595e-15
aF3.1364607163987403e-15
aF2.0144404548624408e-15
aF1.2938053029471335e-15
aF8.30966169520276e-16
aF5.337006044881291e-16
aF3.427772511120902e-16
aF2.201538284795542e-16
aF1.4139708412531458e-16
aF9.081438195225499e-17
aF5.832688478243488e-17
aF3.746130544946641e-17
aF2.406007702837866e-17
aF1.5452939422747767e-17
aF9.924877985915189e-18
aF6.374398912673123e-18
aF4.094051391276472e-18
aF2.629464626359984e-18
aF1.6888122404973534e-18
aF1.0846644270113934e-18
aF6.966416257363065e-19
aF4.474282898721754e-19
aF2.873673714309026e-19
aF1.8456590121385827e-19
aF1.185401512578987e-19
aF7.613414662667317e-20
aF4.8898269446824665e-20
aF3.1405628770319957e-20
aF2.0170724372583292e-20
aF1.2954942681130642e-20
aF8.320501355786638e-21
aF5.343963642106327e-21
aF3.432238772602432e-21
aF2.2044055244570677e-21
aF1.415811670518365e-21
aF9.093257398361891e-22
aF5.840277471943229e-22
aF3.75100356468797e-22
aF2.4091368605531163e-22
aF1.5473033565548288e-22
aF9.937781926620822e-23
aF6.382685661204257e-23
aF4.0993731282706304e-23
aF2.632882282582415e-23
aF1.691007101258279e-23
aF1.0860739963346574e-23
aF6.97546865116383e-24
aF4.480096350873616e-24
aF2.877406997581992e-24
aF1.848056343972665e-24
aF1.1869408744081074e-24
aF7.623298381371722e-25
aF4.896172517106026e-25
aF3.14463657201121e-25
aF2.019687551842884e-25
aF1.2971730213020878e-25
aF8.331277873298654e-26
aF5.350881260750571e-26
aF3.436678896526837e-26
aF2.2072551097760122e-26
aF1.4176402166689397e-26
aF9.104989200853845e-27
aF5.8478027332018506e-27
aF3.7558291774078384e-27
aF2.4122295701706285e-27
aF1.5492842266952232e-27
aF9.95045734905848e-28
aF6.390785860053478e-28
aF4.10453924588306e-28
aF2.6361714090195044e-28
aF1.6930948263586743e-28
aF1.087396126956072e-28
aF6.983807401731367e-29
aF4.485336672070651e-29
aF2.8806935404923324e-29
aF1.850115474893644e-29
aF1.1882370819447312e-29
aF7.63152325466656e-30
aF4.90148198526396e-30
aF3.1481637464582838e-30
aF2.0221328275601173e-30
aF1.2989682939353842e-30
aF8.345384857903353e-31
aF5.362692461290718e-31
aF3.447129993766313e-31
aF2.2168713640449153e-31
aF1.4267220439440023e-31
aF9.19200256710661e-32
aF5.931742660245109e-32
aF3.8370974094397835e-32
aF2.4910837645766126e-32
aF1.6258815433108397e-32
aF1.0693927609274627e-32
aF7.11326973879893e-33
aF4.806655072944382e-33
aF3.319325518494312e-33
aF2.3577187624711908e-33
aF1.734924873152786e-33
aF1.3302041695046586e-33
aF1.0655863758622636e-33
aF8.911848348886956e-34
aF7.75231384620228e-34
aF6.9726688449092144e-34
aF6.4404063797380095e-34
aF6.067471220831672e-34
aF5.803974193894914e-34
aF5.611171965598e-34
aF5.466079649161437e-34
aF5.355191390997012e-34
aF5.26639732951276e-34
aF5.194233520482516e-34
aF5.132439563992829e-34
aF5.078231863500201e-34
aF5.0310293999512795e-34
aF4.987451594905041e-34
aF4.948994029693452e-34
aF4.913332159895658e-34
aF4.87958107296746e-34
aF4.848959002539503e-34
aF4.8209659728037535e-34
aF4.794739030457337e-34
aF4.770107526557757e-34
aF4.746841237323889e-34
aF4.725272687323438e-34
aF4.705812657784079e-34
aF4.686597303045951e-34
aF4.668028784070556e-34
aF4.651224855214518e-34
aF4.634809733935478e-34
aF4.6186017399188294e-34
aF4.603929500250195e-34
aF4.589836039028922e-34
aF4.576763061029551e-34
aF4.564117079313935e-34
aF4.551849430637822e-34
aF4.540833420329924e-34
aF4.5307976516226395e-34
aF4.521318922426873e-34
aF4.5120605214379934e-34
aF4.5036894775977745e-34
aF4.496170306992428e-34
aF4.488662657982714e-34
aF4.482040629392698e-34
aF4.476490426411231e-34
aF4.471725421987704e-34
aF4.466902829752679e-34
aF4.463267518010804e-34
aF4.460239303049097e-34
aF4.457730130571913e-34
assssssag1
(g2
tp17
Rp18
g5
g1
(g2
tp19
Rp20
I200
g1
(g2
tp21
Rp22
I300
g1
(g2
tp23
Rp24
I8
g1
(g2
tp25
Rp26
I30
g1
(g2
tp27
Rp28
I1
(lp29
F0.11498109996318817
aF0.18061605095863342
aF0.24389111995697021
aF0.30711519718170166
aF0.37086430191993713
aF0.43375352025032043
aF0.4970923364162445
aF0.5596531629562378
aF0.6228610277175903
aF0.6859797835350037
aF0.7490238547325134
aF0.8112072944641113
aF0.8744160532951355
aF0.9379311203956604
aF1.001474142074585
aF1.063762903213501
aF1.1273175477981567
aF1.19100022315979
aF1.2543638944625854
aF1.3163118362426758
aF1.3793715238571167
aF1.4426205158233643
aF1.505976676940918
aF1.5682216882705688
aF1.6317410469055176
aF1.6957119703292847
aF1.7588380575180054
aF1.8209067583084106
aF1.8844232559204102
aF1.9478081464767456
aF2.010784387588501
aF2.07303786277771
aF2.1362128257751465
aF2.1995394229888916
aF2.262878656387329
aF2.3254683017730713
aF2.3890695571899414
aF2.4524571895599365
aF2.514801502227783
aF2.5769522190093994
aF2.640643358230591
aF2.7033891677856445
aF2.7672393321990967
aF2.8309473991394043
aF2.893874168395996
aF2.957172393798828
aF3.01953125
aF3.082735300064087
aF3.1461105346679688
aF3.2093138694763184
aF3.2718026638031006
aF3.3354122638702393
aF3.398566484451294
aF3.4630908966064453
aF3.5261635780334473
aF3.589463233947754
aF3.6529500484466553
aF3.716933488845825
aF3.7813563346862793
aF3.845508337020874
aF3.9099607467651367
aF3.9748051166534424
aF4.039710521697998
aF4.104161739349365
aF4.171126842498779
aF4.235476493835449
aF4.300135612487793
aF4.364978790283203
aF4.429806709289551
aF4.4943528175354
aF4.557699680328369
aF4.622411251068115
aF4.687622547149658
aF4.750731945037842
aF4.8150224685668945
aF4.88024377822876
aF4.944740295410156
aF5.009183406829834
aF5.073750019073486
aF5.138523578643799
aF5.2027506828308105
aF5.265932083129883
aF5.331254005432129
aF5.396505832672119
aF5.461042404174805
aF5.525510311126709
aF5.588590621948242
aF5.653157711029053
aF5.721118927001953
aF5.785481929779053
aF5.849642753601074
aF5.912811279296875
aF5.977262020111084
aF6.043411731719971
aF6.10797643661499
aF6.171786785125732
aF6.235147953033447
aF6.299844741821289
aF6.364162445068359
aF6.4272990226745605
aF6.492044448852539
aF6.5610456466674805
aF6.625464916229248
aF6.690430641174316
aF6.753428936004639
aF6.817841529846191
aF6.882259368896484
aF6.945401668548584
aF7.012155055999756
aF7.076232433319092
aF7.141027927398682
aF7.205629825592041
aF7.269198417663574
aF7.333455562591553
aF7.398751735687256
aF7.462049961090088
aF7.527669429779053
aF7.591296672821045
aF7.656061172485352
aF7.719847679138184
aF7.78302526473999
aF7.846133708953857
aF7.910619735717773
aF7.975683689117432
aF8.04041862487793
aF8.104975700378418
aF8.168526649475098
aF8.232927322387695
aF8.297459602355957
aF8.360838890075684
aF8.428751945495605
aF8.49243450164795
aF8.556968688964844
aF8.62237548828125
aF8.685491561889648
aF8.750190734863281
aF8.814239501953125
aF8.877376556396484
aF8.941913604736328
aF9.006060600280762
aF9.069180488586426
aF9.133560180664062
aF9.199381828308105
aF9.262868881225586
aF9.327770233154297
aF9.391983985900879
aF9.456339836120605
aF9.520811080932617
aF9.584023475646973
aF9.649001121520996
aF9.713387489318848
aF9.776803970336914
aF9.84115982055664
aF9.90562629699707
aF9.969035148620605
aF10.033562660217285
aF10.101075172424316
aF10.165802001953125
aF10.23029613494873
aF10.292814254760742
aF10.357389450073242
aF10.421936988830566
aF10.484931945800781
aF10.549483299255371
aF10.614068984985352
aF10.677152633666992
aF10.741912841796875
aF10.806386947631836
aF10.87011432647705
aF10.934831619262695
aF10.998479843139648
aF11.06185245513916
aF11.126437187194824
aF11.190428733825684
aF11.253756523132324
aF11.318244934082031
aF11.382744789123535
aF11.446000099182129
aF11.510537147521973
aF11.575011253356934
aF11.637974739074707
aF11.703269958496094
aF11.768884658813477
aF11.833292961120605
aF11.897846221923828
aF11.960845947265625
aF12.025362014770508
aF12.089750289916992
aF12.152788162231445
aF12.217338562011719
aF12.28144645690918
aF12.344585418701172
aF12.409048080444336
aF12.47353744506836
aF12.536843299865723
aF12.601600646972656
aF12.665962219238281
aF12.729421615600586
aF12.794476509094238
aF12.858563423156738
assssssag1
(g2
tp30
Rp31
g5
g1
(g2
tp32
Rp33
I200
g1
(g2
tp34
Rp35
I300
g1
(g2
tp36
Rp37
I8
g1
(g2
tp38
Rp39
I30
g1
(g2
tp40
Rp41
I1
(lp42
F1.089999983605594e-07
aF0.06563480943441391
aF0.1289099007844925
aF0.1921340525150299
aF0.2558830976486206
aF0.3187723457813263
aF0.382111132144928
aF0.44467195868492126
aF0.5078798532485962
aF0.5709986090660095
aF0.6340425610542297
aF0.6962261199951172
aF0.7594348788261414
aF0.8229498863220215
aF0.8864929676055908
aF0.9487817287445068
aF1.0123363733291626
aF1.076019048690796
aF1.1393827199935913
aF1.2013306617736816
aF1.2643903493881226
aF1.3276393413543701
aF1.3909953832626343
aF1.4532405138015747
aF1.5167597532272339
aF1.580730676651001
aF1.6438566446304321
aF1.7059255838394165
aF1.7694419622421265
aF1.832827091217041
aF1.8958033323287964
aF1.9580565690994263
aF2.0212316513061523
aF2.0845582485198975
aF2.147897243499756
aF2.210487127304077
aF2.2740883827209473
aF2.3374760150909424
aF2.399820327758789
aF2.4619710445404053
aF2.5256619453430176
aF2.5884079933166504
aF2.6522581577301025
aF2.71596622467041
aF2.778892993927002
aF2.842190980911255
aF2.904550075531006
aF2.9677541255950928
aF3.0311293601989746
aF3.094332695007324
aF3.1568214893341064
aF3.220431089401245
aF3.2835853099823
aF3.348109722137451
aF3.411182403564453
aF3.4744818210601807
aF3.537968635559082
aF3.601952314376831
aF3.666374921798706
aF3.73052716255188
aF3.7949795722961426
aF3.8598239421844482
aF3.924729108810425
aF3.989180326461792
aF4.056145668029785
aF4.120495319366455
aF4.185154438018799
aF4.249997615814209
aF4.314825534820557
aF4.379371643066406
aF4.442718505859375
aF4.507430076599121
aF4.572641372680664
aF4.635750770568848
aF4.7000412940979
aF4.765262603759766
aF4.829759120941162
aF4.89420223236084
aF4.958768844604492
aF5.0235419273376465
aF5.087769508361816
aF5.150950908660889
aF5.216272830963135
aF5.281524658203125
aF5.3460612297058105
aF5.410529136657715
aF5.473609447479248
aF5.5381760597229
aF5.606137752532959
aF5.670500755310059
aF5.73466157913208
aF5.797830104827881
aF5.86228084564209
aF5.928430557250977
aF5.992995262145996
aF6.056805610656738
aF6.120166778564453
aF6.184863567352295
aF6.249181270599365
aF6.312317848205566
aF6.377063274383545
aF6.446064472198486
aF6.510483741760254
aF6.575449466705322
aF6.6384477615356445
aF6.702860355377197
aF6.76727819442749
aF6.83042049407959
aF6.897173881530762
aF6.961251258850098
aF7.026046276092529
aF7.090648651123047
aF7.154216766357422
aF7.218474388122559
aF7.283770561218262
aF7.347068786621094
aF7.412688255310059
aF7.476315498352051
aF7.541079998016357
aF7.6048665046691895
aF7.668044090270996
aF7.731152534484863
aF7.795638561248779
aF7.8607025146484375
aF7.925436973571777
aF7.989994049072266
aF8.053544998168945
aF8.117945671081543
aF8.182477951049805
aF8.245858192443848
aF8.31377124786377
aF8.377452850341797
aF8.441987037658691
aF8.507393836975098
aF8.570509910583496
aF8.635210037231445
aF8.699257850646973
aF8.762395858764648
aF8.826932907104492
aF8.891079902648926
aF8.954198837280273
aF9.01857852935791
aF9.084400177001953
aF9.14788818359375
aF9.212788581848145
aF9.277003288269043
aF9.341358184814453
aF9.405829429626465
aF9.46904182434082
aF9.534019470214844
aF9.598405838012695
aF9.661823272705078
aF9.726178169250488
aF9.790645599365234
aF9.85405445098877
aF9.918581008911133
aF9.986093521118164
aF10.050820350646973
aF10.115314483642578
aF10.177833557128906
aF10.242408752441406
aF10.306955337524414
aF10.369950294494629
aF10.434501647949219
aF10.499088287353516
aF10.562171936035156
aF10.626931190490723
aF10.691405296325684
aF10.755132675170898
aF10.819849967956543
aF10.883498191833496
aF10.946871757507324
aF11.011455535888672
aF11.075448036193848
aF11.138774871826172
aF11.203263282775879
aF11.267763137817383
aF11.331019401550293
aF11.395556449890137
aF11.460029602050781
aF11.522993087768555
aF11.588288307189941
aF11.653903007507324
aF11.718311309814453
aF11.782865524291992
aF11.845864295959473
aF11.910380363464355
aF11.97476863861084
aF12.037806510925293
aF12.102356910705566
aF12.166465759277344
aF12.22960376739502
aF12.2940673828125
aF12.358555793762207
aF12.42186164855957
aF12.486618995666504
aF12.550981521606445
aF12.614439964294434
aF12.679494857788086
aF12.743581771850586
assssssa.