(lp0
ccollections
defaultdict
p1
(c__main__
tree
p2
tp3
Rp4
S'cyc_word_embeddings_cyc_sag'
p5
g1
(g2
tp6
Rp7
I100
g1
(g2
tp8
Rp9
I20000
g1
(g2
tp10
Rp11
I1
g1
(g2
tp12
Rp13
I2
g1
(g2
tp14
Rp15
I1
(lp16
F9.640202854976451
aF1.169768127068007
aF0.845022790351704
aF0.619984869179644
aF0.660603571499871
aF0.508904658564267
aF0.601088962592958
aF0.580883738255357
aF0.542215752379976
aF0.532573962465144
aF0.749354698542421
aF0.546406195050503
aF0.666894751061804
aF0.46779115825627
aF0.43611492031925
aF0.502135320982732
aF0.596278047827958
aF0.41991397632026
aF0.413102025237978
aF0.414810865245313
aF0.406694177788772
aF0.426361250677937
aF0.567831743880434
aF0.417607197911921
aF0.39005106525554
aF0.446890043932947
aF0.381832152589909
aF0.387976560327337
aF0.37529445858901
aF0.421761638742016
aF0.396041492214254
aF0.381580106740629
aF0.404466853734725
aF0.389335090830806
aF0.441321081367667
aF0.381706999540836
aF0.433369015726096
aF0.407484857525641
aF0.38236696571196
aF0.381620169610447
aF0.398680760013176
aF0.40595476342918
aF0.387461929698754
aF0.391479588868428
aF0.397584168707196
aF0.438081912275631
aF0.391044922851875
aF0.392370636828105
aF0.379437834575077
aF0.399801941385477
aF0.382460790677488
aF0.385654319634397
aF0.878582377440827
aF0.403725755304413
aF0.375666088383638
aF0.404057538106197
aF0.391982910216945
aF0.483374600881973
aF0.427309576862329
aF0.381331278750038
aF0.411979638553892
aF0.384728734263994
aF0.577794725687501
aF0.805313797401312
aF0.765061760352832
aF0.399312882694572
aF0.413419898117137
aF0.3804102957477
aF0.386977165569948
aF0.42297405470047
aF0.378150054048572
aF0.416275904035391
aF0.407562881341923
aF0.404435742049724
aF0.410745116045778
aF0.449192161696082
aF0.402873995271175
aF0.519746602797018
aF0.398539783932685
aF0.377483737683017
aF0.385520845059447
aF0.389540251055984
aF0.38401969973149
aF0.397290210504648
aF0.383867287064608
aF0.393126212028761
aF0.384002558946376
aF0.384002204532083
aF0.40337829047926
aF0.826059554213568
aF0.376582466950472
aF0.37699459529066
aF0.436374435770948
aF0.399749959829571
aF0.402076326198703
aF0.395228425635417
aF0.375522196053348
aF0.386345988059531
aF0.508122571089265
aF0.574388019588293
assssssS'cyc_word_embeddings_cyc_sgd'
p17
g1
(g2
tp18
Rp19
I100
g1
(g2
tp20
Rp21
I20000
g1
(g2
tp22
Rp23
I1
g1
(g2
tp24
Rp25
I2
g1
(g2
tp26
Rp27
I1
(lp28
F9.640202854976451
aF6.301306951388161
aF4.967974173781145
aF3.577980750262121
aF2.747508767501231
aF2.318037894462893
aF1.931557103852025
aF1.722943893748107
aF1.540396290388532
aF1.394317062643376
aF1.28289106635781
aF1.225130815377906
aF1.221200608123323
aF1.065907711559445
aF1.100519299047121
aF0.996322572324286
aF0.954347397453942
aF0.923209413608931
aF0.913597768181715
aF0.850103442932073
aF0.854753975987036
aF0.820020993909217
aF0.777269010633797
aF0.826793875661343
aF0.769002583990997
aF0.958573586882104
aF0.720628115141694
aF0.721852958953322
aF0.688747813774441
aF0.722164479798701
aF0.706930134274506
aF0.665373479396576
aF0.640277411265883
aF0.648095528951866
aF0.725577668275043
aF0.617137904308789
aF0.660197069907502
aF0.600921502780438
aF0.595578008970954
aF0.637132365866524
aF0.585450879796905
aF0.584031141320111
aF0.563479973650836
aF0.56452231767014
aF0.585068752091981
aF0.603087645943444
aF0.549504658250033
aF0.553670541122532
aF0.532296975025736
aF0.533078009770733
aF0.547119921688751
aF0.524295878104524
aF1.060930919171226
aF0.512186326550221
aF0.51520350034383
aF0.650040337209642
aF0.566197657842937
aF0.530418347998334
aF0.596329146682444
aF0.513386343715431
aF0.591582995270712
aF0.60555480063867
aF0.506208596644522
aF0.496104383490653
aF0.496814561777117
aF0.485548806333498
aF0.486118425718084
aF0.481123453024669
aF0.481875847213011
aF0.465082761985792
aF0.48769976667319
aF0.598622236404645
aF0.469669331843574
aF0.466325157311139
aF0.4688249122929
aF0.509527972161414
aF0.462050681313981
aF0.476327197737885
aF0.574396298351046
aF0.450675021891809
aF0.460373570284579
aF0.457057156653545
aF0.440370553561969
aF0.461630740699984
aF0.455049708141884
aF0.462824854720491
aF0.457037277518934
aF0.439300944941926
aF0.434595934785133
aF0.471454838111621
aF0.436925732210556
aF0.449096106465424
aF0.463396369618536
aF0.439292214328281
aF0.458705782867835
aF0.507122382658381
aF0.426990205653648
aF0.426352108197518
aF0.451697557316577
aF0.458788493682941
assssssag1
(g2
tp29
Rp30
g5
g1
(g2
tp31
Rp32
I100
g1
(g2
tp33
Rp34
I20000
g1
(g2
tp35
Rp36
I1
g1
(g2
tp37
Rp38
I2
g1
(g2
tp39
Rp40
I1
(lp41
F0.008821456693113
aF0.022756915539503
aF0.036617588251829
aF0.050487358123064
aF0.064312793314457
aF0.078016832470894
aF0.091924108564854
aF0.105700820684433
aF0.119588524103165
aF0.13359834253788
aF0.147428512573242
aF0.16142638027668
aF0.175180613994598
aF0.188848063349724
aF0.20266255736351
aF0.21649906039238
aF0.230341076850891
aF0.244178161025047
aF0.257994920015335
aF0.27164563536644
aF0.28545480966568
aF0.299248576164246
aF0.31316551566124
aF0.327014148235321
aF0.340861946344376
aF0.354864090681076
aF0.368593215942383
aF0.382590413093567
aF0.396381586790085
aF0.410153716802597
aF0.424033045768738
aF0.437936544418335
aF0.451736330986023
aF0.465656280517578
aF0.479435235261917
aF0.493400275707245
aF0.507253706455231
aF0.521194875240326
aF0.535186290740967
aF0.548995018005371
aF0.562882483005524
aF0.576825737953186
aF0.590552926063538
aF0.604335367679596
aF0.618375420570374
aF0.632078349590302
aF0.645986557006836
aF0.659814417362213
aF0.673586905002594
aF0.68733537197113
aF0.701147079467773
aF0.714844286441803
aF0.728920161724091
aF0.742689847946167
aF0.756486654281616
aF0.770419359207153
aF0.78405499458313
aF0.798018872737885
aF0.811687409877777
aF0.825746774673462
aF0.839550495147705
aF0.853390574455261
aF0.867207109928131
aF0.881212055683136
aF0.895004451274872
aF0.908963680267334
aF0.922640442848206
aF0.936436593532562
aF0.950420081615448
aF0.964110493659973
aF0.977976322174072
aF0.991719543933868
aF1.005542397499084
aF1.019317507743835
aF1.033156991004944
aF1.046846389770508
aF1.060864806175232
aF1.074746131896973
aF1.088654756546021
aF1.102611184120178
aF1.116353511810303
aF1.130528569221497
aF1.144216179847717
aF1.157942771911621
aF1.171804428100586
aF1.185559391975403
aF1.19940721988678
aF1.213512778282166
aF1.227189064025879
aF1.241246342658997
aF1.254998803138733
aF1.268709659576416
aF1.282736301422119
aF1.296393156051636
aF1.310326099395752
aF1.32425057888031
aF1.337926149368286
aF1.35182249546051
aF1.365622520446777
aF1.379436016082764
assssssg17
g1
(g2
tp42
Rp43
I100
g1
(g2
tp44
Rp45
I20000
g1
(g2
tp46
Rp47
I1
g1
(g2
tp48
Rp49
I2
g1
(g2
tp50
Rp51
I1
(lp52
F0.008761709555984
aF0.021322157233953
aF0.033784586936235
aF0.046440709382296
aF0.058920208364725
aF0.071561694145203
aF0.084168471395969
aF0.096736863255501
aF0.109145358204842
aF0.121761068701744
aF0.134517326951027
aF0.147103846073151
aF0.159641563892365
aF0.17215983569622
aF0.184778243303299
aF0.197306916117668
aF0.20968122780323
aF0.222068518400192
aF0.234764128923416
aF0.247257679700851
aF0.259652853012085
aF0.272013485431671
aF0.284364849328995
aF0.296855688095093
aF0.309284716844559
aF0.32171294093132
aF0.334306627511978
aF0.346922516822815
aF0.359337419271469
aF0.371829003095627
aF0.38442850112915
aF0.397040724754333
aF0.409531861543655
aF0.421929270029068
aF0.434463441371918
aF0.446985512971878
aF0.459515571594238
aF0.472011655569077
aF0.484333753585815
aF0.497033983469009
aF0.509445488452911
aF0.521769464015961
aF0.534285962581635
aF0.546646654605865
aF0.559186935424805
aF0.571639835834503
aF0.584121108055115
aF0.596573412418365
aF0.609141111373901
aF0.62171858549118
aF0.634288012981415
aF0.646953344345093
aF0.659546792507172
aF0.672082543373108
aF0.684751033782959
aF0.697195470333099
aF0.709825992584229
aF0.722462594509125
aF0.735020756721497
aF0.747678101062775
aF0.760156571865082
aF0.772744536399841
aF0.785258293151855
aF0.797851860523224
aF0.810497164726257
aF0.823208928108215
aF0.835834443569183
aF0.848253428936005
aF0.860842943191528
aF0.873456060886383
aF0.885970711708069
aF0.898565113544464
aF0.911247253417969
aF0.923760712146759
aF0.936393737792969
aF0.948906064033508
aF0.961577415466309
aF0.974175274372101
aF0.986704349517822
aF0.999355435371399
aF1.011972784996033
aF1.024575471878052
aF1.037056446075439
aF1.049686312675476
aF1.062333941459656
aF1.074840545654297
aF1.087466955184937
aF1.10003924369812
aF1.112736344337463
aF1.12525486946106
aF1.137852907180786
aF1.150431513786316
aF1.163137793540955
aF1.175723195075989
aF1.188395500183105
aF1.201035022735596
aF1.213517189025879
aF1.226372122764587
aF1.23883855342865
aF1.251484036445618
assssssag1
(g2
tp53
Rp54
g5
g1
(g2
tp55
Rp56
I100
g1
(g2
tp57
Rp58
I20000
g1
(g2
tp59
Rp60
I1
g1
(g2
tp61
Rp62
I2
g1
(g2
tp63
Rp64
I1
(lp65
F1.10999999e-07
aF0.013935564085841
aF0.027796218171716
aF0.041665982455015
aF0.05549144372344
aF0.069195464253426
aF0.083102747797966
aF0.096879474818707
aF0.110767185688019
aF0.124776989221573
aF0.138607174158096
aF0.152604922652245
aF0.16635924577713
aF0.180026710033417
aF0.193841204047203
aF0.207677692174911
aF0.221519723534584
aF0.235356792807579
aF0.249173551797867
aF0.262824237346649
aF0.276633471250534
aF0.2904272377491
aF0.304344147443771
aF0.318192809820175
aF0.332040578126907
aF0.346042722463608
aF0.359771847724915
aF0.373769044876099
aF0.387560248374939
aF0.401332348585129
aF0.415211707353592
aF0.429115206003189
aF0.442914992570877
aF0.456834942102432
aF0.470613867044449
aF0.484578907489777
aF0.498432338237762
aF0.512373507022858
aF0.526364922523499
aF0.540173649787903
aF0.554061114788055
aF0.568004369735718
aF0.581731557846069
aF0.595513999462128
aF0.609554052352905
aF0.623256981372833
aF0.637165188789368
aF0.650993049144745
aF0.664765536785126
aF0.678514063358307
aF0.69232577085495
aF0.706022918224335
aF0.720098793506622
aF0.733868479728699
aF0.747665345668793
aF0.761597990989685
aF0.775233626365662
aF0.789197504520416
aF0.802866041660309
aF0.816925406455994
aF0.830729126930237
aF0.844569206237793
aF0.858385741710663
aF0.872390747070312
aF0.886183083057404
aF0.900142312049866
aF0.913819074630737
aF0.927615225315094
aF0.94159871339798
aF0.955289125442505
aF0.969155013561249
aF0.9828981757164
aF0.996721029281616
aF1.010496139526367
aF1.024335622787476
aF1.03802502155304
aF1.052043557167053
aF1.065924763679504
aF1.079833388328552
aF1.09378981590271
aF1.107532143592834
aF1.121707201004028
aF1.135394930839539
aF1.149121403694153
aF1.162983059883118
aF1.176738023757935
aF1.190585851669312
aF1.204691410064697
aF1.218367695808411
aF1.232425093650818
aF1.246177554130554
aF1.259888291358948
aF1.273914933204651
aF1.287571907043457
aF1.301504611968994
aF1.315429210662842
aF1.329104781150818
aF1.343001246452332
aF1.356801152229309
aF1.370614647865295
assssssg17
g1
(g2
tp66
Rp67
I100
g1
(g2
tp68
Rp69
I20000
g1
(g2
tp70
Rp71
I1
g1
(g2
tp72
Rp73
I2
g1
(g2
tp74
Rp75
I1
(lp76
F2.04000003e-07
aF0.012560643255711
aF0.025023069232702
aF0.037679184228182
aF0.050158683210611
aF0.062800176441669
aF0.075406946241856
aF0.087975338101387
aF0.100383833050728
aF0.112999558448792
aF0.125755801796913
aF0.138342320919037
aF0.150880038738251
aF0.163398325443268
aF0.176016733050346
aF0.188545390963554
aF0.200919687747955
aF0.213306993246078
aF0.226002618670464
aF0.238496154546738
aF0.250891327857971
aF0.26325199007988
aF0.275603353977203
aF0.288094162940979
aF0.300523221492767
aF0.312951415777206
aF0.325545132160187
aF0.338160991668701
aF0.350575894117355
aF0.363067477941513
aF0.375666886568069
aF0.38827919960022
aF0.400770336389542
aF0.413167744874954
aF0.425701916217804
aF0.438224017620087
aF0.450754076242447
aF0.463250130414963
aF0.475572228431702
aF0.488272458314896
aF0.500683963298798
aF0.513007938861847
aF0.525517404079437
aF0.537885189056396
aF0.550425410270691
aF0.562878310680389
aF0.575359582901001
aF0.587811887264252
aF0.600379586219788
aF0.612957060337067
aF0.625526487827301
aF0.638191819190979
aF0.650785267353058
aF0.663321018218994
aF0.675989508628845
aF0.688433945178986
aF0.701064467430115
aF0.713701069355011
aF0.726259231567383
aF0.738916575908661
aF0.751395046710968
aF0.763983011245728
aF0.776496767997742
aF0.78909033536911
aF0.801735699176788
aF0.814447402954102
aF0.82707291841507
aF0.839491903781891
aF0.852081477642059
aF0.864694535732269
aF0.877209186553955
aF0.88980358839035
aF0.902485728263855
aF0.914999186992645
aF0.927632212638855
aF0.94014447927475
aF0.952815890312195
aF0.965413749217987
aF0.977942824363708
aF0.990593910217285
aF1.003211259841919
aF1.015813946723938
aF1.028294920921326
aF1.040924787521362
aF1.053572416305542
aF1.066079020500183
aF1.078705430030823
aF1.091277718544006
aF1.10397481918335
aF1.116493344306946
aF1.129091382026672
aF1.141669988632202
aF1.154376268386841
aF1.166961669921875
aF1.179633975028992
aF1.192273497581482
aF1.204755663871765
aF1.217610597610474
aF1.230076909065247
aF1.242722511291504
assssssa.