(lp0
ccollections
defaultdict
p1
(c__main__
tree
p2
tp3
Rp4
S'cyc_word_embeddings_cyc_sag'
p5
g1
(g2
tp6
Rp7
I100
g1
(g2
tp8
Rp9
I20000
g1
(g2
tp10
Rp11
I1
g1
(g2
tp12
Rp13
I2
g1
(g2
tp14
Rp15
I1
(lp16
F1.169768127068041
aF0.747027460880617
aF0.632701865303163
aF0.585441290816207
aF0.559253300211888
aF0.539575964924097
aF0.521249657521695
aF0.503336537146384
aF0.486628547334378
aF0.471375996052082
aF0.458367010739091
aF0.447469815166329
aF0.439069016646557
aF0.431850783633696
aF0.426636464602006
aF0.42192275511562
aF0.418839880090487
aF0.415504402620113
aF0.413600486445471
aF0.411114437799965
aF0.40999640054181
aF0.408044763869225
aF0.407431469293083
aF0.405832610088103
aF0.405562041507222
aF0.404208615064358
aF0.404182882069512
aF0.403010724499483
aF0.403165973652782
aF0.402126696476718
aF0.402410203534644
aF0.4014609103502
aF0.401830198690181
aF0.400939321055555
aF0.401366145532828
aF0.400513982708765
aF0.400980475836327
aF0.400154616258256
aF0.400650221810156
aF0.399846167335926
aF0.400369834175702
aF0.399590459237356
aF0.400143601632064
aF0.399388117122085
aF0.399966147132192
aF0.399229037560468
aF0.399825808093151
aF0.399102039394168
aF0.399712873961059
aF0.398998824063618
aF0.399620372966738
aF0.398913432941657
aF0.399543239244002
aF0.398841494018545
aF0.3994777274434
aF0.39877977394888
aF0.399421076109818
aF0.398725905750887
aF0.39937128140561
aF0.398678187143661
aF0.399326915951974
aF0.398635413884913
aF0.399286977360078
aF0.398596742241965
aF0.39925076525816
aF0.398561580002761
aF0.399217785740556
aF0.398529503326116
aF0.399187678737272
aF0.398500192707352
aF0.399160159468018
aF0.398473377354736
aF0.399134962419046
aF0.398448777271853
aF0.399111781301522
aF0.398426046229672
aF0.399090227166816
aF0.398404770056856
aF0.399069905683903
aF0.398384670821966
aF0.399050779833559
aF0.398366090901477
aF0.39903361421714
aF0.398350097632132
aF0.399019452878318
aF0.398337294461826
aF0.399008189527074
aF0.398326857791922
aF0.398998594284093
aF0.398317504533343
aF0.398989635349441
aF0.398308551118565
aF0.398980960963817
aF0.398299891683143
aF0.39897262166877
aF0.398291681120457
aF0.398964838263347
aF0.398284207166832
aF0.398957958846318
aF0.398277887266162
assssssS'cyc_word_embeddings_cyc_sgd'
p17
g1
(g2
tp18
Rp19
I100
g1
(g2
tp20
Rp21
I20000
g1
(g2
tp22
Rp23
I1
g1
(g2
tp24
Rp25
I2
g1
(g2
tp26
Rp27
I1
(lp28
Fnan
aFnan
aFnan
aFnan
aFnan
aFnan
aFnan
aFnan
aFnan
aFnan
aFnan
aFnan
aFnan
aFnan
aFnan
aFnan
aFnan
aFnan
aFnan
aFnan
aFnan
aFnan
aFnan
aFnan
aFnan
aFnan
aFnan
aFnan
aFnan
aFnan
aFnan
aFnan
aFnan
aFnan
aFnan
aFnan
aFnan
aFnan
aFnan
aFnan
aFnan
aFnan
aFnan
aFnan
aFnan
aFnan
aFnan
aFnan
aFnan
aFnan
aFnan
aFnan
aFnan
aFnan
aFnan
aFnan
aFnan
aFnan
aFnan
aFnan
aFnan
aFnan
aFnan
aFnan
aFnan
aFnan
aFnan
aFnan
aFnan
aFnan
aFnan
aFnan
aFnan
aFnan
aFnan
aFnan
aFnan
aFnan
aFnan
aFnan
aFnan
aFnan
aFnan
aFnan
aFnan
aFnan
aFnan
aFnan
aFnan
aFnan
aFnan
aFnan
aFnan
aFnan
aFnan
aFnan
aFnan
aFnan
aFnan
aFnan
assssssag1
(g2
tp29
Rp30
g5
g1
(g2
tp31
Rp32
I100
g1
(g2
tp33
Rp34
I20000
g1
(g2
tp35
Rp36
I1
g1
(g2
tp37
Rp38
I2
g1
(g2
tp39
Rp40
I1
(lp41
F0.012623553164303
aF0.016281561926007
aF0.020087694749236
aF0.023713337257504
aF0.027511363849044
aF0.03117405064404
aF0.034838616847992
aF0.038792137056589
aF0.042410515248775
aF0.046031266450882
aF0.049838609993458
aF0.053461980074644
aF0.057204067707062
aF0.060894038528204
aF0.06456833332777
aF0.068462841212749
aF0.072066351771355
aF0.075617268681526
aF0.079487003386021
aF0.083110883831978
aF0.086754329502583
aF0.090523973107338
aF0.09422405809164
aF0.09803818166256
aF0.101694628596306
aF0.105249345302582
aF0.109038814902306
aF0.112689487636089
aF0.116272039711475
aF0.120104819536209
aF0.12380351126194
aF0.127505511045456
aF0.131229102611542
aF0.134779036045074
aF0.138543725013733
aF0.142169579863548
aF0.145791798830032
aF0.149613499641418
aF0.153363451361656
aF0.156980946660042
aF0.160751432180405
aF0.164300069212914
aF0.168011829257011
aF0.171706929802895
aF0.175290897488594
aF0.179095849394798
aF0.182849586009979
aF0.186419934034348
aF0.190268009901047
aF0.193964287638664
aF0.197595208883286
aF0.201366528868675
aF0.204949617385864
aF0.208703547716141
aF0.212412759661674
aF0.21603949368
aF0.21983340382576
aF0.22342087328434
aF0.226980239152908
aF0.230794697999954
aF0.234417706727982
aF0.238067582249641
aF0.241851910948753
aF0.24554643034935
aF0.249322846531868
aF0.252912849187851
aF0.256453365087509
aF0.26029497385025
aF0.263955682516098
aF0.267541468143463
aF0.27134296298027
aF0.275041103363037
aF0.278762102127075
aF0.282434016466141
aF0.286025583744049
aF0.289899528026581
aF0.293587654829025
aF0.297135233879089
aF0.300960659980774
aF0.304671496152878
aF0.308338075876236
aF0.312086641788483
aF0.31563612818718
aF0.319433391094208
aF0.323090195655823
aF0.326655030250549
aF0.330466091632843
aF0.334202349185944
aF0.33774733543396
aF0.341573894023895
aF0.345166683197021
aF0.34880718588829
aF0.352569401264191
aF0.35615485906601
aF0.359927415847778
aF0.363675385713577
aF0.367222875356674
aF0.371068596839905
aF0.374655485153198
aF0.378237634897232
assssssg17
g1
(g2
tp42
Rp43
I100
g1
(g2
tp44
Rp45
I20000
g1
(g2
tp46
Rp47
I1
g1
(g2
tp48
Rp49
I2
g1
(g2
tp50
Rp51
I1
(lp52
F0.011494923382998
aF0.014050438068807
aF0.016815021634102
aF0.019454404711723
aF0.022009706124663
aF0.024584792554379
aF0.02728134021163
aF0.029911393299699
aF0.032517351210117
aF0.03515250235796
aF0.037911552935839
aF0.040467523038387
aF0.043019440025091
aF0.045625876635313
aF0.048313405364752
aF0.050927996635437
aF0.05350848287344
aF0.056188516318798
aF0.058815967291594
aF0.061490654945374
aF0.064057305455208
aF0.066802956163883
aF0.069408841431141
aF0.071934871375561
aF0.074500739574432
aF0.077203378081322
aF0.079839862883091
aF0.0824024528265
aF0.084955595433712
aF0.087663374841213
aF0.090306177735329
aF0.092899508774281
aF0.095604658126831
aF0.098292112350464
aF0.100851118564606
aF0.103396371006966
aF0.10602318495512
aF0.108683548867702
aF0.111322939395905
aF0.11389147490263
aF0.116530314087868
aF0.119199760258198
aF0.121830180287361
aF0.124393090605736
aF0.127089589834213
aF0.129684746265411
aF0.132213652133942
aF0.134777218103409
aF0.137554228305817
aF0.14019002020359
aF0.14274999499321
aF0.145304828882217
aF0.148006722331047
aF0.150629281997681
aF0.153218477964401
aF0.15581838786602
aF0.158519357442856
aF0.161118775606155
aF0.163642048835754
aF0.166333720088005
aF0.169011831283569
aF0.171662002801895
aF0.174215853214264
aF0.17684867978096
aF0.179525852203369
aF0.182155847549438
aF0.184719651937485
aF0.187476217746735
aF0.19005723297596
aF0.192586988210678
aF0.195150285959244
aF0.197920113801956
aF0.200544804334641
aF0.203103601932526
aF0.205657780170441
aF0.208404287695885
aF0.211131900548935
aF0.21372227370739
aF0.216323018074036
aF0.2190320789814
aF0.221590802073479
aF0.224116578698158
aF0.22681100666523
aF0.2295211404562
aF0.232120126485825
aF0.234681278467178
aF0.237300902605057
aF0.239993631839752
aF0.242619693279266
aF0.245172619819641
aF0.247943326830864
aF0.250514894723892
aF0.253033190965652
aF0.255617141723633
aF0.258359223604202
aF0.261024087667465
aF0.263583838939667
aF0.266141414642334
aF0.268884658813477
aF0.271479606628418
assssssag1
(g2
tp53
Rp54
g5
g1
(g2
tp55
Rp56
I100
g1
(g2
tp57
Rp58
I20000
g1
(g2
tp59
Rp60
I1
g1
(g2
tp61
Rp62
I2
g1
(g2
tp63
Rp64
I1
(lp65
F0.003587288083509
aF0.007245231885463
aF0.011051355861127
aF0.014677088707685
aF0.018475061282516
aF0.022137720137835
aF0.025802308693528
aF0.029755789786577
aF0.033374268561602
aF0.036995019763708
aF0.040802359580994
aF0.04442572593689
aF0.048167731612921
aF0.051857706159353
aF0.055532034486532
aF0.059426505118608
aF0.063030011951923
aF0.066580928862095
aF0.070450752973557
aF0.074074633419514
aF0.077717982232571
aF0.081487722694874
aF0.085187807679176
aF0.089001849293709
aF0.092658273875713
aF0.096213035285473
aF0.100002564489841
aF0.103653244674206
aF0.107235684990883
aF0.111068569123745
aF0.114767260849476
aF0.118469171226025
aF0.12219276279211
aF0.125742688775063
aF0.129507392644882
aF0.133133247494698
aF0.13675545156002
aF0.140577241778374
aF0.144327193498611
aF0.147944703698158
aF0.151715070009232
aF0.155263751745224
aF0.158975481987
aF0.162670582532883
aF0.166254550218582
aF0.170059517025948
aF0.17381326854229
aF0.177383586764336
aF0.181231752038002
aF0.18492802977562
aF0.188558951020241
aF0.192330285906792
aF0.19591335952282
aF0.199667289853096
aF0.203376412391663
aF0.207003191113472
aF0.21079708635807
aF0.214384570717812
aF0.217943906784058
aF0.221758455038071
aF0.225381404161453
aF0.229031264781952
aF0.232815563678741
aF0.236510187387466
aF0.240286529064178
aF0.243876591324806
aF0.247417062520981
aF0.251258671283722
aF0.25491937994957
aF0.25850510597229
aF0.262306720018387
aF0.266004800796509
aF0.269725739955902
aF0.27339768409729
aF0.276989251375198
aF0.28086319565773
aF0.284551292657852
aF0.288098901510239
aF0.291924327611923
aF0.295635193586349
aF0.299301743507385
aF0.303050339221954
aF0.306599795818329
aF0.310397088527679
aF0.314053863286972
aF0.317618727684021
aF0.321429789066315
aF0.325166046619415
aF0.328711032867432
aF0.332537561655045
aF0.336130440235138
aF0.339770972728729
aF0.34353306889534
aF0.347118556499481
aF0.350891083478928
aF0.354639023542404
aF0.358186572790146
aF0.362032264471054
aF0.36561918258667
aF0.369201332330704
assssssg17
g1
(g2
tp66
Rp67
I100
g1
(g2
tp68
Rp69
I20000
g1
(g2
tp70
Rp71
I1
g1
(g2
tp72
Rp73
I2
g1
(g2
tp74
Rp75
I1
(lp76
F0.002533175982535
aF0.005088625010103
aF0.00785327795893
aF0.010492610745132
aF0.013047957792878
aF0.015622952021658
aF0.018319604918361
aF0.020949427038431
aF0.023555517196655
aF0.0261907633394
aF0.028949730098248
aF0.031505785882473
aF0.034057665616274
aF0.036664042621851
aF0.039351645857096
aF0.041966192424297
aF0.04454668238759
aF0.047226723283529
aF0.049854226410389
aF0.052528910338879
aF0.055095568299294
aF0.057841125875711
aF0.060447007417679
aF0.062973074615002
aF0.065539002418518
aF0.068241581320763
aF0.070878073573112
aF0.073440723121166
aF0.075993798673153
aF0.078701578080654
aF0.081344448029995
aF0.083937540650368
aF0.086642920970917
aF0.08933038264513
aF0.091889284551144
aF0.094434544444084
aF0.097061343491077
aF0.099721729755402
aF0.102361105382442
aF0.10492967069149
aF0.107568472623825
aF0.110238030552864
aF0.112868435680866
aF0.115431353449821
aF0.118127770721912
aF0.120722912251949
aF0.123251847922802
aF0.125815480947495
aF0.128592357039452
aF0.131228223443031
aF0.133788257837296
aF0.136342987418175
aF0.139044895768166
aF0.141667455434799
aF0.144256740808487
aF0.146856561303139
aF0.149557530879974
aF0.152156949043274
aF0.154680237174034
aF0.15737196803093
aF0.160050004720688
aF0.162700265645981
aF0.16525411605835
aF0.167886853218079
aF0.170564100146294
aF0.173194110393524
aF0.175757825374603
aF0.178514376282692
aF0.181095391511917
aF0.183625191450119
aF0.186188489198685
aF0.188958317041397
aF0.191582977771759
aF0.194141864776611
aF0.19669596850872
aF0.199442461133003
aF0.202170073986053
aF0.204760521650314
aF0.207361191511154
aF0.210070267319679
aF0.212628990411758
aF0.215154752135277
aF0.21784919500351
aF0.220559313893318
aF0.223158329725266
aF0.225719481706619
aF0.228339061141014
aF0.231031805276871
aF0.233657971024513
aF0.236210837960243
aF0.238981500267982
aF0.241553068161011
aF0.244071394205093
aF0.246655359864235
aF0.249397456645966
aF0.252062261104584
aF0.25462207198143
aF0.25717967748642
aF0.259922921657562
aF0.262517809867859
assssssa.