(lp0
ccollections
defaultdict
p1
(c__main__
tree
p2
tp3
Rp4
S'cyc_word_embeddings_cyc'
p5
g1
(g2
tp6
Rp7
I200
g1
(g2
tp8
Rp9
I300
g1
(g2
tp10
Rp11
I8
g1
(g2
tp12
Rp13
I30
g1
(g2
tp14
Rp15
I1
(lp16
F2659.7033262529335
aF82.95020107979084
aF36.135037240912396
aF22.4361501287495
aF16.009660348803028
aF12.368525536812529
aF10.064512627892617
aF8.491450331829729
aF7.356316625950721
aF6.501976387986032
aF5.837350503127176
aF5.306397153748297
aF4.872945682600328
aF4.512706175137237
aF4.208807954286158
aF3.9491884870459932
aF3.7250029653066354
aF3.5296212699739797
aF3.357975746677884
aF3.2061255213083424
aF3.070958438701939
aF2.949982758543833
aF2.841178748373962
aF2.742891076358598
aF2.6537495172294303
aF2.5726096444033515
aF2.498507855080644
aF2.4306268268280697
aF2.368268671651671
aF2.3108338440452973
aF2.257804402595307
aF2.208730603049313
aF2.163220067754343
aF2.120928967188108
aF2.0815547873027387
aF2.0448303573503606
aF2.0105188875188027
aF1.9784098214933998
aF1.9483153511594284
aF1.9200674727309552
aF1.8935154882298983
aF1.868523875330836
aF1.844970463495065
aF1.8227448660330872
aF1.801747127021915
aF1.7818865493919445
aF1.7630806764262437
aF1.745254403691637
aF1.7283392022862432
aF1.712272437440058
aF1.6969967690804295
aF1.6824596230887046
aF1.6686127237214843
aF1.6554116791160574
aF1.6428156130002263
aF1.630786836733281
aF1.619290556644975
aF1.608294612344855
aF1.5977692422752563
aF1.5876868732815475
aF1.5780219314072337
aF1.5687506714818769
aF1.5598510233873573
aF1.5513024531518285
aF1.5430858372528644
aF1.535183348707939
aF1.5275783537035692
aF1.520255317660961
aF1.5131997197666047
aF1.5063979751053995
aF1.4998373636358486
aF1.4935059653283982
aF1.4873926008645022
aF1.4814867773611935
aF1.47577863863909
aF1.4702589196096436
aF1.4649189043938469
aF1.4597503878331761
aF1.454745640081044
aF1.4498973739996508
aF1.4451987151113803
aF1.4406431738807293
aF1.436224620124366
aF1.4319372593635205
aF1.4277756109574993
aF1.4237344878630456
aF1.4198089778878382
aF1.415994426312609
aF1.4122864197695106
aF1.4086807712764924
aF1.4051735063337711
aF1.4017608499971517
aF1.3984392148538463
aF1.3952051898267868
aF1.392055529746808
aF1.3889871456314988
aF1.3859970956174121
aF1.383082576497992
aF1.380240915819583
aF1.3774695644962007
aF1.3747660899038896
aF1.3721281694209402
aF1.3695535843791695
aF1.3670402144009979
aF1.3645860320908558
aF1.3621890980584088
aF1.3598475562499106
aF1.3575596295653023
aF1.3553236157434858
aF1.353137883495049
aF1.351000868867671
aF1.348911071827336
aF1.3468670530414197
aF1.3448674308503106
aF1.342910878415196
aF1.3409961210301353
aF1.3391219335880542
aF1.3372871381911078
aF1.3354906018950106
aF1.3337312345809704
aF1.3320079869441572
aF1.330319848594517
aF1.3286658462605414
aF1.3270450420915658
aF1.3254565320504605
aF1.3238994443934256
aF1.322372938229684
aF1.3208762021580043
aF1.319408452973468
aF1.3179689344427004
aF1.316556916140968
aF1.3151716923499497
aF1.3138125810108712
aF1.3124789227304996
aF1.3111700798368255
aF1.3098854354823417
aF1.308624392790562
aF1.3073863740449962
aF1.3061708199173205
aF1.3049771887329389
aF1.3038049557714686
aF1.3026536126005814
aF1.3015226664415596
aF1.3004116395638554
aF1.2993200687088
aF1.298247504538852
aF1.2971935111129125
aF1.296157665385206
aF1.2951395567263668
aF1.2941387864665845
aF1.293154967459096
aF1.2921877236620982
aF1.291236689739922
aF1.290301510681471
aF1.289381841434113
aF1.2884773465546824
aF1.2875876998743303
aF1.28671258417792
aF1.2858516908968423
aF1.2850047198145509
aF1.284171378784173
aF1.28335138345802
aF1.2825444570276536
aF1.2817503299749229
aF1.280968739832819
aF1.2801994309554958
aF1.2794421542980237
aF1.2786966672042273
aF1.2779627332033712
aF1.2772401218141378
aF1.2765286083563558
aF1.2758279737701759
aF1.2751380044416811
aF1.2744584920352235
aF1.2737892333323912
aF1.2731300300761557
aF1.2724806888215845
aF1.2718410207913486
aF1.2712108417370316
aF1.2705899718051066
aF1.2699782354079057
aF1.2693754610987003
aF1.2687814814522393
aF1.2681961329482052
aF1.2676192558596562
aF1.267050694145207
aF1.2664902953442927
aF1.2659379104769695
aF1.2653933939461972
aF1.2648566034442796
aF1.2643273998616034
aF1.2638056471991133
aF1.2632912124833375
aF1.262783965684168
aF1.262283779635572
aF1.261790529958845
aF1.261304094987757
aF1.2608243556972845
aF1.260351195633365
aF1.2598845008457082
assssssag1
(g2
tp17
Rp18
g5
g1
(g2
tp19
Rp20
I200
g1
(g2
tp21
Rp22
I300
g1
(g2
tp23
Rp24
I8
g1
(g2
tp25
Rp26
I30
g1
(g2
tp27
Rp28
I1
(lp29
F0.1112886592745781
aF0.142111137509346
aF0.1719331294298172
aF0.20150797069072723
aF0.2310100793838501
aF0.26085588335990906
aF0.2905067205429077
aF0.32028868794441223
aF0.34943467378616333
aF0.37917375564575195
aF0.40877604484558105
aF0.43865010142326355
aF0.46856680512428284
aF0.4982233941555023
aF0.527886152267456
aF0.5571175217628479
aF0.5871167182922363
aF0.6169693470001221
aF0.6465848684310913
aF0.6764819025993347
aF0.7062303423881531
aF0.7359834313392639
aF0.765353262424469
aF0.7949525713920593
aF0.8244715332984924
aF0.8537033796310425
aF0.8832550644874573
aF0.9128125309944153
aF0.9425681829452515
aF0.9722375869750977
aF1.0021657943725586
aF1.031908631324768
aF1.0615220069885254
aF1.0911668539047241
aF1.1209348440170288
aF1.1508756875991821
aF1.1807491779327393
aF1.2105827331542969
aF1.240380883216858
aF1.2699497938156128
aF1.2992229461669922
aF1.3290151357650757
aF1.358914852142334
aF1.388576626777649
aF1.4178260564804077
aF1.447432041168213
aF1.4769313335418701
aF1.5066012144088745
aF1.5359545946121216
aF1.5650622844696045
aF1.5947941541671753
aF1.624638557434082
aF1.6541640758514404
aF1.6842046976089478
aF1.7141536474227905
aF1.7436693906784058
aF1.77362060546875
aF1.803356647491455
aF1.8335561752319336
aF1.8640047311782837
aF1.893701195716858
aF1.9236352443695068
aF1.953649878501892
aF1.983647108078003
aF2.0136961936950684
aF2.0439016819000244
aF2.073287010192871
aF2.103200674057007
aF2.132927179336548
aF2.1627533435821533
aF2.192460775375366
aF2.221764326095581
aF2.251296043395996
aF2.280956268310547
aF2.310816526412964
aF2.3404603004455566
aF2.3701438903808594
aF2.3996787071228027
aF2.428898811340332
aF2.4584851264953613
aF2.4880664348602295
aF2.517784833908081
aF2.5475881099700928
aF2.577120065689087
aF2.6066973209381104
aF2.6362524032592773
aF2.6655538082122803
aF2.694690704345703
aF2.7238118648529053
aF2.7528202533721924
aF2.782350778579712
aF2.811854362487793
aF2.8410308361053467
aF2.8702809810638428
aF2.9001173973083496
aF2.929847002029419
aF2.9597554206848145
aF2.989180326461792
aF3.0187995433807373
aF3.0487191677093506
aF3.0786209106445312
aF3.1082277297973633
aF3.138152837753296
aF3.1676785945892334
aF3.19720196723938
aF3.226666212081909
aF3.256199836730957
aF3.285813570022583
aF3.315321207046509
aF3.344642162322998
aF3.373640298843384
aF3.4030745029449463
aF3.43285870552063
aF3.46254301071167
aF3.492255926132202
aF3.5217654705047607
aF3.5516059398651123
aF3.581587076187134
aF3.611538887023926
aF3.641390800476074
aF3.670931816101074
aF3.7007486820220947
aF3.7304975986480713
aF3.7600364685058594
aF3.7898006439208984
aF3.819350242614746
aF3.848999261856079
aF3.8787648677825928
aF3.90838623046875
aF3.937685966491699
aF3.967256784439087
aF3.996896982192993
aF4.026620388031006
aF4.056330680847168
aF4.086039066314697
aF4.1157002449035645
aF4.144985198974609
aF4.17474365234375
aF4.204615592956543
aF4.234297752380371
aF4.264001369476318
aF4.293518543243408
aF4.323206424713135
aF4.352840423583984
aF4.382530212402344
aF4.412303924560547
aF4.441681385040283
aF4.471187591552734
aF4.500857830047607
aF4.530503749847412
aF4.5602312088012695
aF4.58981466293335
aF4.619589328765869
aF4.648990154266357
aF4.678561687469482
aF4.708431243896484
aF4.738105773925781
aF4.767832279205322
aF4.797517776489258
aF4.826971530914307
aF4.856202602386475
aF4.885120868682861
aF4.914441108703613
aF4.943845272064209
aF4.973390102386475
aF5.003325939178467
aF5.033104419708252
aF5.062825679779053
aF5.092731952667236
aF5.122486114501953
aF5.152134418487549
aF5.181447505950928
aF5.211243629455566
aF5.240986347198486
aF5.270724296569824
aF5.300593376159668
aF5.330104351043701
aF5.359790325164795
aF5.389035701751709
aF5.418516635894775
aF5.448100566864014
aF5.477837562561035
aF5.507523059844971
aF5.537180423736572
aF5.566766738891602
aF5.596346855163574
aF5.626011848449707
aF5.655510902404785
aF5.685157299041748
aF5.71490478515625
aF5.744683265686035
aF5.77433967590332
aF5.804017543792725
aF5.8331122398376465
aF5.862852573394775
aF5.892526626586914
aF5.922255039215088
aF5.951733589172363
aF5.981413841247559
aF6.011322498321533
assssssag1
(g2
tp30
Rp31
g5
g1
(g2
tp32
Rp33
I200
g1
(g2
tp34
Rp35
I300
g1
(g2
tp36
Rp37
I8
g1
(g2
tp38
Rp39
I30
g1
(g2
tp40
Rp41
I1
(lp42
F9.699999736767495e-08
aF0.030822468921542168
aF0.06064446270465851
aF0.09021934866905212
aF0.11972144991159439
aF0.14956724643707275
aF0.17921806871891022
aF0.20900008082389832
aF0.23814605176448822
aF0.2678850293159485
aF0.2974873483181
aF0.327361524105072
aF0.35727807879447937
aF0.38693472743034363
aF0.416597455739975
aF0.4458288550376892
aF0.4758280813694
aF0.5056806802749634
aF0.5352962017059326
aF0.565193235874176
aF0.5949416756629944
aF0.62469482421875
aF0.6540646553039551
aF0.6836639642715454
aF0.7131828665733337
aF0.7424147129058838
aF0.7719663977622986
aF0.8015238642692566
aF0.831279456615448
aF0.860948920249939
aF0.8908771276473999
aF0.9206199049949646
aF0.9502332806587219
aF0.9798782467842102
aF1.0096461772918701
aF1.0395870208740234
aF1.069460391998291
aF1.0992940664291382
aF1.1290922164916992
aF1.1586612462997437
aF1.187934160232544
aF1.217726469039917
aF1.2476261854171753
aF1.2772879600524902
aF1.3065372705459595
aF1.3361433744430542
aF1.3656426668167114
aF1.3953125476837158
aF1.424665927886963
aF1.4537736177444458
aF1.4835054874420166
aF1.5133498907089233
aF1.5428755283355713
aF1.572916030883789
aF1.6028649806976318
aF1.632380723953247
aF1.6623319387435913
aF1.6920678615570068
aF1.722267508506775
aF1.7527159452438354
aF1.7824125289916992
aF1.8123465776443481
aF1.8423612117767334
aF1.8723583221435547
aF1.9024074077606201
aF1.9326130151748657
aF1.9619983434677124
aF1.9919118881225586
aF2.0216386318206787
aF2.051464796066284
aF2.081172227859497
aF2.110475540161133
aF2.140007495880127
aF2.1696674823760986
aF2.1995277404785156
aF2.2291715145111084
aF2.258855104446411
aF2.2883899211883545
aF2.317610263824463
aF2.347196340560913
aF2.3767776489257812
aF2.406496286392212
aF2.4362993240356445
aF2.4658315181732178
aF2.495408535003662
aF2.524963617324829
aF2.554265022277832
aF2.583402156829834
aF2.612523078918457
aF2.6415317058563232
aF2.6710619926452637
aF2.700565814971924
aF2.7297420501708984
aF2.7589921951293945
aF2.7888286113739014
aF2.8185582160949707
aF2.8484668731689453
aF2.8778915405273438
aF2.907510757446289
aF2.9374303817749023
aF2.967332124710083
aF2.996938943862915
aF3.0268642902374268
aF3.056389808654785
aF3.0859131813049316
aF3.11537766456604
aF3.144911050796509
aF3.174525022506714
aF3.2040324211120605
aF3.233353614807129
aF3.2623515129089355
aF3.291785955429077
aF3.3215701580047607
aF3.3512542247772217
aF3.380967140197754
aF3.4104766845703125
aF3.440317392349243
aF3.4702985286712646
aF3.5002503395080566
aF3.530102014541626
aF3.559643268585205
aF3.5894601345062256
aF3.619209051132202
aF3.648747682571411
aF3.67851185798645
aF3.708061456680298
aF3.73771071434021
aF3.7674763202667236
aF3.7970974445343018
aF3.82639741897583
aF3.8559682369232178
aF3.885608196258545
aF3.9153318405151367
aF3.9450418949127197
aF3.97475004196167
aF4.004411697387695
aF4.03369665145874
aF4.063455104827881
aF4.093327045440674
aF4.123009204864502
aF4.152712821960449
aF4.182229995727539
aF4.211917877197266
aF4.241551876068115
aF4.271241664886475
aF4.301015377044678
aF4.330392837524414
aF4.359899044036865
aF4.389569282531738
aF4.419214725494385
aF4.4489426612854
aF4.4785261154174805
aF4.50830078125
aF4.537701606750488
aF4.567273139953613
aF4.597142219543457
aF4.626817226409912
aF4.656543731689453
aF4.686229228973389
aF4.7156829833984375
aF4.7449140548706055
aF4.773832321166992
aF4.803152084350586
aF4.83255672454834
aF4.8621015548706055
aF4.892037391662598
aF4.921815872192383
aF4.951537132263184
aF4.981443405151367
aF5.011197566986084
aF5.04084587097168
aF5.070158958435059
aF5.099954605102539
aF5.129697322845459
aF5.159435272216797
aF5.189304828643799
aF5.218815326690674
aF5.248501777648926
aF5.27774715423584
aF5.307228088378906
aF5.3368120193481445
aF5.366549015045166
aF5.396234512329102
aF5.425891399383545
aF5.455478191375732
aF5.485058307647705
aF5.514723300933838
aF5.544222354888916
aF5.573868751525879
aF5.603616237640381
aF5.633394241333008
aF5.663051128387451
aF5.6927289962768555
aF5.721823692321777
aF5.751563549041748
aF5.781238079071045
aF5.810966491699219
aF5.840444564819336
aF5.8701252937316895
aF5.900033473968506
assssssa.