(lp0
ccollections
defaultdict
p1
(c__main__
tree
p2
tp3
Rp4
S'cyc_word_embeddings_serial'
p5
g1
(g2
tp6
Rp7
I20
g1
(g2
tp8
Rp9
I4250
g1
(g2
tp10
Rp11
I8
g1
(g2
tp12
Rp13
I30
g1
(g2
tp14
Rp15
I1
(lp16
F1376.7451577259935
aF2.6298985474485144
aF1.030126905081556
aF0.6039770958121133
aF0.42002316903312653
aF0.32089329823004137
aF0.2599273373759704
aF0.21902256957427346
aF0.1898532979045428
aF0.16809782958295738
aF0.1513008091085861
aF0.13796869932171618
aF0.1271443557433886
aF0.11818865758675419
aF0.110660202863149
aF0.10424526106543194
aF0.0987151933389063
aF0.09389965463462545
aF0.08966922459765735
aF0.0859238537218617
assssssS'cyc_word_embeddings_serial_shuffle'
p17
g1
(g2
tp18
Rp19
I20
g1
(g2
tp20
Rp21
I4250
g1
(g2
tp22
Rp23
I8
g1
(g2
tp24
Rp25
I30
g1
(g2
tp26
Rp27
I1
(lp28
F1376.7451577259935
aF2.62457127282601
aF1.0234998169156628
aF0.5985172681740061
aF0.4152123573814789
aF0.31692405142710595
aF0.25676554478611296
aF0.2164328025739593
aF0.18771872384719512
aF0.1663378472527973
aF0.14981424277967137
aF0.13671747994531525
aF0.12606951240964173
aF0.1172498244954953
aF0.10983356981962647
aF0.10352957714022801
aF0.09808872575609001
aF0.0933593796309341
aF0.08917350546361684
aF0.08548332918198948
assssssag1
(g2
tp29
Rp30
g5
g1
(g2
tp31
Rp32
I20
g1
(g2
tp33
Rp34
I4250
g1
(g2
tp35
Rp36
I8
g1
(g2
tp37
Rp38
I30
g1
(g2
tp39
Rp40
I1
(lp41
F0.0
aF0.0
aF0.0
aF0.0
aF0.0
aF0.0
aF0.0
aF0.0
aF0.0
aF0.0
aF0.0
aF0.0
aF0.0
aF0.0
aF0.0
aF0.0
aF0.0
aF0.0
aF0.0
aF0.0
assssssg17
g1
(g2
tp42
Rp43
I20
g1
(g2
tp44
Rp45
I4250
g1
(g2
tp46
Rp47
I8
g1
(g2
tp48
Rp49
I30
g1
(g2
tp50
Rp51
I1
(lp52
F0.0
aF0.0
aF0.0
aF0.0
aF0.0
aF0.0
aF0.0
aF0.0
aF0.0
aF0.0
aF0.0
aF0.0
aF0.0
aF0.0
aF0.0
aF0.0
aF0.0
aF0.0
aF0.0
aF0.0
assssssag1
(g2
tp53
Rp54
g5
g1
(g2
tp55
Rp56
I20
g1
(g2
tp57
Rp58
I4250
g1
(g2
tp59
Rp60
I8
g1
(g2
tp61
Rp62
I30
g1
(g2
tp63
Rp64
I1
(lp65
F0.0
aF0.0
aF0.0
aF0.0
aF0.0
aF0.0
aF0.0
aF0.0
aF0.0
aF0.0
aF0.0
aF0.0
aF0.0
aF0.0
aF0.0
aF0.0
aF0.0
aF0.0
aF0.0
aF0.0
assssssg17
g1
(g2
tp66
Rp67
I20
g1
(g2
tp68
Rp69
I4250
g1
(g2
tp70
Rp71
I8
g1
(g2
tp72
Rp73
I30
g1
(g2
tp74
Rp75
I1
(lp76
F0.0
aF0.0
aF0.0
aF0.0
aF0.0
aF0.0
aF0.0
aF0.0
aF0.0
aF0.0
aF0.0
aF0.0
aF0.0
aF0.0
aF0.0
aF0.0
aF0.0
aF0.0
aF0.0
aF0.0
assssssa.