(lp0
ccollections
defaultdict
p1
(c__main__
tree
p2
tp3
Rp4
S'cyc_word_embeddings_hog_sgd'
p5
g1
(g2
tp6
Rp7
I500
g1
(g2
tp8
Rp9
I80000
g1
(g2
tp10
Rp11
I8
g1
(g2
tp12
Rp13
I30
g1
(g2
tp14
Rp15
I1
(lp16
F1245.2502846059813
aF1074.0724833456256
aF936.3144869391849
aF823.7652141677692
aF730.5990462189922
aF652.5860099562196
aF586.5911353730216
aF530.2542791046731
aF481.7696740874957
aF439.73427886660596
aF403.04628319750543
aF370.83095937481886
aF342.38572233204286
aF317.1411502112105
aF294.6308327206775
aF274.4722315574406
aF256.346389997707
aF239.98715306744074
aF225.17102509641242
aF211.70834692010317
aF199.43801375363094
aF188.2227951529899
aF177.9437425004912
aF168.4989757862994
aF159.80020741843427
aF151.77012407811822
aF144.3416196344164
aF137.45552658550906
aF131.05983289968697
aF125.10880243406572
aF119.5617643948111
aF114.38285255805484
aF109.53986196640194
aF105.00406651580242
aF100.7499097263565
aF96.75434561708427
aF92.99668516718002
aF89.45825250489005
aF86.12220469591225
aF82.97329698227492
aF79.99757088270634
aF77.18253968828594
aF74.51677005783156
aF71.98970583466905
aF69.59186053569458
aF67.31452869496029
aF65.14963334271818
aF63.08988246921476
aF61.12848728398173
aF59.2592371988649
aF57.476393595160815
aF55.774671073769674
aF54.14919683860343
aF52.595407491592866
aF51.10912265554157
aF49.68647691898831
aF48.32383542447617
aF47.01780533161343
aF45.765328969162425
aF44.56345154061842
aF43.40945390076641
aF42.30082481960515
aF41.23516275900141
aF40.21026874526997
aF39.22410393258577
aF38.27468279709047
aF37.360176766340686
aF36.478896004466215
aF35.62923700249268
aF34.809684823614816
aF34.01883579623065
aF33.25532170867022
aF32.51791491999081
aF31.805397505277558
aF31.116675605750853
aF30.450670843982667
aF29.806390105133122
aF29.18289546785607
aF28.579283869402186
aF27.99471954849723
aF27.42839402153765
aF26.879546183761033
aF26.347455763380495
aF25.831459045846632
aF25.330886894952116
aF24.845140220593734
aF24.3736153145378
aF23.915762623755406
aF23.47105580610018
aF23.038989459965904
aF22.619085967316522
aF22.210882972880107
aF21.8139414811602
aF21.42786562170619
aF21.05223438858517
aF20.686676280387278
aF20.330842016865454
aF19.98437193187463
aF19.646950008034803
aF19.31825532725405
aF18.99797810367244
aF18.685836398215102
aF18.381552630276563
aF18.08486503002685
aF17.795514499311857
aF17.51326393567683
aF17.237876102613097
aF16.969130041659536
aF16.706806466827565
aF16.45071199146751
aF16.200638298439863
aF15.956395002071675
aF15.717802638017167
aF15.484687255189412
aF15.256876978427343
aF15.0342176585529
aF14.81654857812076
aF14.603721962359295
aF14.395587601081502
aF14.192013285580096
aF13.992863570708634
aF13.798006592527733
aF13.607316839484243
aF13.42068265189395
aF13.237979924552612
aF13.059102892094671
aF12.883944481106216
aF12.712397655143985
aF12.544365461324523
aF12.37975177673091
aF12.218461728971716
aF12.060404085253655
aF11.905489901368343
aF11.753641061694477
aF11.604776201837922
aF11.458811677934062
aF11.315675983830465
aF11.175290799063012
aF11.037589472793082
aF10.902502561426306
aF10.769962541464356
aF10.639905321352376
aF10.512270319821516
aF10.386992011425782
aF10.264012857740271
aF10.143279964233864
aF10.02473526593873
aF9.90832934040226
aF9.794003853078692
aF9.681713509983943
aF9.57140935199139
aF9.463043238924127
aF9.35656982610159
aF9.251945086445609
aF9.149126453088837
aF9.0480702255071
aF8.948736637650656
aF8.851085767175194
aF8.755080185027705
aF8.660681879866583
aF8.567855904501142
aF8.476565199184217
aF8.386776487937626
aF8.298456135836327
aF8.211571442668216
aF8.126093631056186
aF8.041990200619935
aF7.9592299829912205
aF7.877787185336454
aF7.797630230769507
aF7.718734421418523
aF7.6410731591347485
aF7.564620381704222
aF7.489348124429088
aF7.415233590455694
aF7.34225330792725
aF7.270382828868239
aF7.199601933866161
aF7.129885255427395
aF7.061213474340997
aF6.9935660783034175
aF6.9269199245513775
aF6.8612563644312985
aF6.796556755596877
aF6.732798915148135
aF6.669967914260955
aF6.6080433933560325
aF6.5470078876380695
aF6.486845778929935
aF6.4275386513729655
aF6.369072135074392
aF6.3114283267975875
aF6.254592619573746
aF6.198549098821653
aF6.143282940932159
aF6.088780718724288
aF6.0350273136226695
aF5.9820072459384726
aF5.929710642298195
aF5.87812199509457
aF5.827228245992795
aF5.777016761784924
aF5.727474689117932
aF5.678591718561336
aF5.630354826760443
aF5.582753908518398
aF5.535776499916284
aF5.489411215764301
aF5.443648140679696
aF5.398476869609626
aF5.353886352323214
aF5.309866356959543
aF5.266408144333028
aF5.223501067753944
aF5.181136864761271
aF5.139304911983799
aF5.097996602577588
aF5.057203556937869
aF5.0169166169728285
aF4.977127328380967
aF4.937828106416072
aF4.899009504451595
aF4.860665161764371
aF4.8227870036870994
aF4.785366117341197
aF4.748396289502323
aF4.711868970672555
aF4.675778138894674
aF4.6401163674342625
aF4.604876506261965
aF4.5700519404848485
aF4.535636538299797
aF4.5016235856007585
aF4.468006812390262
aF4.434779828024467
aF4.401936314140433
aF4.369470961045188
aF4.337376648280694
aF4.305648631261897
aF4.274281544164266
aF4.243268630323441
aF4.212605675440066
aF4.182287135313347
aF4.152307458606638
aF4.122661987495678
aF4.09334512341616
aF4.064352657698603
aF4.035678872437998
aF4.007319275671565
aF3.9792700439263884
aF3.951525139009295
aF3.9240806098910714
aF3.896932838282807
aF3.870076820123102
aF3.8435085246192524
aF3.8172239190733395
aF3.7912185725431393
aF3.7654889154721056
aF3.7400306288835425
aF3.7148397407418208
aF3.6899127446403064
aF3.66524591590529
aF3.640835847490941
aF3.616678491934527
aF3.5927700677343486
aF3.569108005273864
aF3.5456876884170887
aF3.522507111191325
aF3.4995617506426755
aF3.476848692435451
aF3.4543656461536303
aF3.4321084525430514
aF3.4100741081595487
aF3.388260253818473
aF3.3666634192997904
aF3.3452809840652513
aF3.3241100497456135
aF3.303147296653134
aF3.28239025656104
aF3.2618363597033473
aF3.2414828218338076
aF3.2213269646116247
aF3.201366258840117
aF3.1815978118429893
aF3.1620195315910413
aF3.14262880335559
aF3.123423003531566
aF3.104400147091341
aF3.0855576456015843
aF3.0668936110357903
aF3.048405336242996
aF3.030090329525092
aF3.0119467857470634
aF2.993972456877618
aF2.976165030803665
aF2.9585227288655584
aF2.9410432450944897
aF2.923724904415025
aF2.9065651888946453
aF2.889562345806116
aF2.872714406874321
aF2.8560195003296593
aF2.8394760364114124
aF2.8230818776652025
aF2.806834945284081
aF2.7907340283723028
aF2.7747769319313114
aF2.7589620462040623
aF2.743287655033643
aF2.727751936135431
aF2.712353228514688
aF2.6970902337309317
aF2.6819609489330367
aF2.6669639098737714
aF2.652097632789099
aF2.6373602597249324
aF2.622750724652971
aF2.60826740767286
aF2.5939091594093027
aF2.5796739747753747
aF2.565560260927063
aF2.551567285129494
aF2.537693208235947
aF2.523936619547932
aF2.510296412143786
aF2.4967710833726433
aF2.483359612601514
aF2.4700604329387192
aF2.4568719838547013
aF2.4437936570191368
aF2.4308239679789136
aF2.417961327409552
aF2.4052052956709016
aF2.39255427409927
aF2.380006957566869
aF2.367562319175848
aF2.35521901200371
aF2.3429763652316065
aF2.330833014128633
aF2.3187876958912943
aF2.3068393526751865
aF2.294987279403342
aF2.2832301033839406
aF2.271567225103936
aF2.2599970382169934
aF2.2485187600999144
aF2.2371316270776442
aF2.225834315984755
aF2.2146260266176463
aF2.2035060349534414
aF2.1924730069673806
aF2.1815263563961307
aF2.17066495334769
aF2.1598881046173286
aF2.1491945520847837
aF2.1385838454383226
aF2.128054835390096
aF2.1176067709231643
aF2.107238816423571
aF2.096949936685857
aF2.0867396390311663
aF2.0766070570050474
aF2.0665512863919395
aF2.0565715809340523
aF2.04666712009913
aF2.0368369638323287
aF2.027080837799459
aF2.017397475783013
aF2.007786304863854
aF1.9982468149491355
aF1.988778084555454
aF1.9793793480251078
aF1.9700500454182917
aF1.960789315025439
aF1.9515966314634854
aF1.942471446471615
aF1.93341285870572
aF1.9244202767683556
aF1.9154930129849743
aF1.9066302832532935
aF1.897831647346423
aF1.8890965712677454
aF1.880424361599207
aF1.8718141764069511
aF1.8632655873808324
aF1.8547782884571384
aF1.8463512679502605
aF1.8379840797707738
aF1.8296760371284713
aF1.8214269164259138
aF1.8132358305312026
aF1.805102321063239
aF1.7970257650330987
aF1.7890057085812496
aF1.7810415330252618
aF1.7731328591006008
aF1.765279027886406
aF1.7574795055689498
aF1.7497339382134878
aF1.7420417226506106
aF1.7344024355885408
aF1.726815471563003
aF1.719280271706652
aF1.7117966122798307
aF1.7043639783777333
aF1.6969815853613504
aF1.6896492661884053
aF1.68236651068895
aF1.675132794413421
aF1.6679478299376664
aF1.6608108777291894
aF1.6537217196855785
aF1.646679893989302
aF1.6396849072191568
aF1.6327365334973165
aF1.625834121298985
aF1.6189774573321853
aF1.6121658421705463
aF1.6053990596527732
aF1.5986767484109747
aF1.591998546159227
aF1.585363920556274
aF1.5787724953865143
aF1.572223985417677
aF1.5657179174488156
aF1.559253986553743
aF1.5528318266019057
aF1.5464511244939219
aF1.5401114866769499
aF1.5338124424620732
aF1.5275535831829832
aF1.5213346846201588
aF1.5151556514370776
aF1.5090156515275384
aF1.5029145683616292
aF1.4968521289013432
aF1.4908279525365162
aF1.4848418645840227
aF1.4788932250366813
aF1.472981870413537
aF1.4671074723958548
aF1.461269763787703
aF1.4554683803846933
aF1.4497031606045643
aF1.443973622627757
aF1.4382795142998421
aF1.432620509248645
aF1.4269964388665881
aF1.4214068220688838
aF1.4158514056259857
aF1.4103300873411446
aF1.4048424062209042
aF1.3993881817827138
aF1.3939671505911206
aF1.388578910309147
aF1.3832233124783533
aF1.3779000955892549
aF1.3726088233880633
aF1.367349536736232
aF1.362121654300354
aF1.356925085227164
aF1.3517595733949666
aF1.3466248271819854
aF1.3415205859962167
aF1.3364467223685996
aF1.3314029012865893
aF1.3263888155341306
aF1.321404400963335
aF1.316449262109716
aF1.311523320200133
aF1.3066260978105846
aF1.3017574637299678
aF1.2969174315521839
aF1.292105421562874
aF1.287321442749181
aF1.282565132942906
aF1.2778364006496152
aF1.2731349312635756
aF1.2684605496450256
aF1.2638130930287688
aF1.2591922391308563
aF1.2545979627977284
aF1.2500299330788653
aF1.2454878457628746
aF1.2409716904649395
aF1.236481130490205
aF1.232016014595105
aF1.2275761977165267
aF1.2231614040855872
aF1.2187714375675194
aF1.2144062039995107
aF1.210065433469708
aF1.2057490502848611
aF1.2014567045600595
aF1.1971884178021217
aF1.1929438737831612
aF1.1887228055986865
aF1.1845251456758823
aF1.1803507403767481
aF1.1761994395685749
asssI1
g1
(g2
tp17
Rp18
I30
g1
(g2
tp19
Rp20
I1
(lp21
F1245.2502846059813
aF1074.0601035638551
aF936.2937938873337
aF823.7409820835983
aF730.573216873798
aF652.5587490200451
aF586.5639663552846
aF530.2276974815765
aF481.74304843618773
aF439.707985273788
aF403.02094784121147
aF370.80660985243213
aF342.3622200970519
aF317.11824625118504
aF294.60911999202796
aF274.4512223519149
aF256.32612941204377
aF239.96772785572423
aF225.15221047840802
aF211.6902380062907
aF199.4207466930942
aF188.2060178779747
aF177.92772361051743
aF168.48373336289293
aF159.7855187299223
aF151.7560313437428
aF144.32795779586922
aF137.4422768361619
aF131.04706039244795
aF125.09647238225051
aF119.54992884585955
aF114.37139033073291
aF109.5287632254142
aF104.99339126414645
aF100.73962199071745
aF96.74443579976112
aF92.98712742990556
aF89.44903159136526
aF86.11328586666647
aF82.9646252013999
aF79.9892032592533
aF77.17443669700035
aF74.50886905537759
aF71.98205148873727
aF69.58443799111471
aF67.30729313725342
aF65.14261065673472
aF63.08304140977762
aF61.121829542732065
aF59.25275577728924
aF57.470086935721504
aF55.76853092951138
aF54.14319654515583
aF52.589557450794004
aF51.10341992422333
aF49.68089386848898
aF48.31836673723943
aF47.01248004038541
aF45.760108141841364
aF44.55833909709538
aF43.40445730898976
aF42.295927806977204
aF41.230381978225154
aF40.20560459915207
aF39.21952203349125
aF38.27019147832774
aF37.35579115297776
aF36.4746113372291
aF35.625046175869
aF34.80558617541137
aF34.01481132689278
aF33.25138479567873
aF32.5140471253984
aF31.80161090860921
aF31.112955881682485
aF30.447024405692456
aF29.802817298928616
aF29.179389990064717
aF28.575848964048898
aF27.991348475520645
aF27.42508750691942
aF26.87630695066771
aF26.344286996758424
aF25.828344708728846
aF25.32783177270436
aF24.84213240544225
aF24.37066140870528
aF23.9128623583229
aF23.468205917409435
aF23.03618826405981
aF22.616329624737165
aF22.2081729052862
aF21.811282412213924
aF21.425242657476776
aF21.049657240596776
aF20.684147802438783
aF20.32835304542489
aF19.981927815405314
aF19.644542240798994
aF19.315880924921913
aF18.99564218779904
aF18.683537354014465
aF18.37929008341751
aF18.082635741768293
aF17.793320808616997
aF17.51110231990578
aF17.2357473429992
aF16.96703248198166
aF16.704743411266072
aF16.44867443563964
aF16.198628075078975
aF15.95441467273555
aF15.715852024610793
aF15.48276502958826
aF15.254985358525406
aF15.032351141233654
aF14.814706670253749
aF14.601902120396158
aF14.393793283097832
aF14.190241314702455
aF13.991112497832276
aF13.796278015092234
aF13.605613734359162
aF13.419000005004358
aF13.23632146440217
aF13.057466854139394
aF12.882328845375906
aF12.710803872830054
aF12.542791976915066
aF12.37819665356058
aF12.216924711306207
aF12.05888613525195
aF11.903993957510682
aF11.752164133783165
aF11.603315425757053
aF11.457369288991217
aF11.314249766008334
aF11.173883384320371
aF11.036199059119738
aF10.901128000401162
aF10.768603624285747
aF10.638561468315421
aF10.51093911054767
aF10.385676092215014
aF10.26271384380546
aF10.14199561437582
aF10.02346640393425
aF9.907072898753663
aF9.792763409455576
aF9.680487811745067
aF9.570197489650635
aF9.461845281166607
aF9.355385426167866
aF9.250773516495101
aF9.147966448108024
aF9.046922375206513
aF8.947600666232336
aF8.849961861653439
aF8.753967633463523
aF8.65958074630082
aF8.566765020130234
aF8.475485294398638
aF8.385707393616734
aF8.297398094279938
aF8.210525093094827
aF8.12505697643031
aF8.040963190951647
aF7.958214015382278
aF7.876780533345293
aF7.796634607233543
aF7.717748853069333
aF7.640096616306566
aF7.563651948540003
aF7.488389585075975
aF7.414284923335794
aF7.3413140020504475
aF7.2694534812184575
aF7.198680622790177
aF7.128973272055449
aF7.0603098396943285
aF6.9926692844771825
aF6.926031096579125
aF6.860375281481905
aF6.7956823444496415
aF6.731933275545654
aF6.669109535170628
aF6.607193040107792
aF6.546166150045737
aF6.486011654566394
aF6.426712760579827
aF6.368253080182451
aF6.310616618931436
aF6.253787764509071
aF6.197751275773328
aF6.142492272168408
aF6.087996223491163
aF6.034248939992824
aF5.981236562806922
aF5.928945554693989
aF5.877362691082188
aF5.82647505140411
aF5.776270010708566
aF5.726735231546031
aF5.677858656108819
aF5.629628498627852
aF5.582033238003766
aF5.535061610674328
aF5.488702603706146
aF5.442945448099593
aF5.3977796123041015
aF5.353194795933273
aF5.309180923675501
aF5.265728139388803
aF5.222826800378567
aF5.1804674718480435
aF5.138640921517725
aF5.097338114406238
aF5.056550207768105
aF5.016268546184616
aF4.976484656797205
aF4.9371902446852065
aF4.898377188379738
aF4.8600375355070975
aF4.8221634985632615
aF4.784747450807566
aF4.747781922279022
aF4.711259595924448
aF4.675173303841794
aF4.639516023627637
aF4.604280874830722
aF4.569461115505209
aF4.535050138863382
aF4.50104147002007
aF4.467428762831256
aF4.4342057968176665
aF4.401366474177456
aF4.3689048168793505
aF4.336814963837826
aF4.305091168163515
aF4.273727794491997
aF4.242719316383038
aF4.212060313792233
aF4.181745470608821
aF4.151769572263218
aF4.122127503396
aF4.092814245590012
aF4.063824875163144
aF4.035154561020886
aF4.00679856256265
aF3.978752227646929
aF3.951010990606592
aF3.923570370317371
aF3.8964259683187312
aF3.8695734669791397
aF3.8430086277132447
aF3.816727289240321
aF3.7907253658933384
aF3.7649988459652093
aF3.73954379010019
aF3.714356329727265
aF3.6894326655303007
aF3.6647690659577257
aF3.6403618657709274
aF3.6162074646279634
aF3.5923023257007847
aF3.5686429743311594
aF3.5452259967151245
aF3.522048038622621
aF3.499105804148361
aF3.4763960544915755
aF3.4539156067681454
aF3.4316613328493077
aF3.4096301582294384
aF3.387819060921114
aF3.366225070376689
aF3.3448452664356445
aF3.323676778297717
aF3.3027167835184232
aF3.281962507031052
aF3.2614112201903405
aF3.241060239838427
aF3.220906927393968
aF3.200948687960289
aF3.1811829694578817
aF3.1616072617728164
aF3.142219095928424
aF3.12301604327388
aF3.1039957146932458
aF3.0851557598299193
aF3.066493866332635
aF3.0480077591145323
aF3.029695199632123
aF3.0115539851791437
aF2.993581948196783
aF2.975776955598989
aF2.958136908113388
aF2.9406597396359624
aF2.923343416602304
aF2.9061859373695826
aF2.889185331615164
aF2.87233965974623
aF2.8556470123241886
aF2.839105509500421
aF2.8227133004647134
aF2.806468562905975
aF2.790369502483913
aF2.7744143523134754
aF2.758601372458814
aF2.742928849439008
aF2.7273950957442223
aF2.7119984493627585
aF2.6967372733169563
aF2.68160995520968
aF2.666614906780159
aF2.6517505634699177
aF2.63701538399716
aF2.6224078499396297
aF2.6079264653270036
aF2.5935697562417452
aF2.579336270427546
aF2.5652245769068833
aF2.5512332656056924
aF2.537360946985586
aF2.5236062516845035
aF2.509967830164148
aF2.4964443523645024
aF2.4830345073658324
aF2.4697370030570274
aF2.456550565811312
aF2.4434739401672783
aF2.4305058885181667
aF2.417645190805266
aF2.404890644219414
aF2.392241062907168
aF2.379695277682918
aF2.3672521357473864
aF2.3549105004110014
aF2.3426692508232563
aF2.3305272817067846
aF2.3184835030971325
aF2.306536840087707
aF2.294686232578705
aF2.282930635032534
aF2.2712690162323264
aF2.2597003590463802
aF2.2482236601962935
aF2.2368379300301355
aF2.22554219229941
aF2.21433548394111
aF2.203216854862416
aF2.192185367731527
aF2.1812400977704867
aF2.1703801325535905
aF2.1596045718080235
aF2.1489125272198555
aF2.138303122241647
aF2.1277754919062435
aF2.11732878264163
aF2.1069621520907846
aF2.0966747689334118
aF2.086465812713251
aF2.0763344736661113
aF2.0662799525526077
aF2.056301460492769
aF2.0463982188058747
aF2.036569458849944
aF2.0268144218674227
aF2.0171323588311854
aF2.0075225302945308
aF1.9979842062442241
aF1.9885166659545572
aF1.9791191978463056
aF1.969791099345937
aF1.9605316767489764
aF1.9513402450849018
aF1.9422161279851442
aF1.9331586575526278
aF1.9241671742341053
aF1.9152410266948328
aF1.906379571695125
aF1.8975821739691643
aF1.8888482061061085
aF1.8801770484331242
aF1.8715680889002033
aF1.8630207229678348
aF1.854534353495399
aF1.8461083906325306
aF1.8377422517117519
aF1.8294353611432979
aF1.8211871503113408
aF1.8129970574725236
aF1.8048645276556445
aF1.7967890125638195
aF1.7887699704770885
aF1.7808068661581602
aF1.7728991707584372
aF1.7650463617264331
aF1.7572479227174946
aF1.7495033435048275
aF1.7418121198924545
aF1.7341737536290933
aF1.7265877523240265
aF1.719053629363704
aF1.7115709038307307
aF1.704139100422652
aF1.696757749373943
aF1.6894263863774348
aF1.6821445525088583
aF1.6749117941509228
aF1.6677276629198232
aF1.660591715592016
aF1.653503514033484
aF1.646462625128645
aF1.6394686207112528
aF1.6325210774967163
aF1.6256195770144084
aF1.6187637055422184
aF1.6119530540413132
aF1.6051872180924318
aF1.5984657978333259
aF1.5917883978961997
aF1.5851546273473134
aF1.5785640996273966
aF1.5720164324919388
aF1.5655112479536415
aF1.5590481722252696
aF1.552626835663363
aF1.546246872712832
aF1.5399079218525564
aF1.5336096255418141
aF1.5273516301673846
aF1.5211335859915214
aF1.5149551471009104
aF1.5088159713563638
aF1.502715720342895
aF1.4966540593212465
aF1.4906306571794017
aF1.484645186385741
aF1.4786973229418512
aF1.4727867463368252
aF1.466913139502251
aF1.4610761887672643
aF1.4552755838150737
aF1.4495110176394093
aF1.443782186502247
aF1.4380887898915895
aF1.4324305304806098
aF1.4268071140862417
aF1.421218249630275
aF1.4156636490986612
aF1.4101430275033584
aF1.4046561028437603
aF1.3992025960692602
aF1.3937822310414911
aF1.3883947344984058
aF1.383039836017664
aF1.377717267981153
aF1.372426765540191
aF1.367168066580821
aF1.3619409116896357
aF1.356745044120428
aF1.351580209761229
aF1.3464461571015618
aF1.3413426372003783
aF1.3362694036544418
aF1.3312262125672827
aF1.3262128225182173
aF1.3212289945321232
aF1.3162744920499183
aF1.3113490808985104
aF1.3064525292623146
aF1.301584607654552
aF1.2967450888887775
aF1.2919337480512614
aF1.287150362473898
aF1.2823947117065286
aF1.2776665774910199
aF1.2729657437342965
aF1.2682919964830532
aF1.263645123897925
aF1.2590249162283884
aF1.254431165787769
aF1.2498636669290861
aF1.2453222160204995
aF1.2408066114219614
aF1.236316653461473
aF1.2318521444118302
aF1.227412888467995
aF1.2229986917244846
aF1.2186093621533431
aF1.2142447095818385
aF1.2099045456711242
aF1.205588683894913
aF1.2012969395184856
aF1.1970291295777487
aF1.1927850728589422
aF1.188564589878475
aF1.1843675028628664
aF1.1801936357293594
aF1.176042814066009
asssI4
g1
(g2
tp22
Rp23
I30
g1
(g2
tp24
Rp25
I1
(lp26
F1245.2502846059813
aF1074.0666857813283
aF936.3018922819429
aF823.7499466793822
aF730.5828439036261
aF652.5685701177455
aF586.5739969458697
aF530.2374749114765
aF481.752456332816
aF439.71717173490015
aF403.0297339080079
aF370.8150992216488
aF342.3705850935898
aF317.1263385141874
aF294.61695791476853
aF274.45876703332124
aF256.33329977493594
aF239.9745555950683
aF225.1586776667885
aF211.69642766875808
aF199.42678493277222
aF188.21184883499257
aF177.9333327280792
aF168.4891401648344
aF159.79068374248027
aF151.760982043045
aF144.3326523800585
aF137.44684479599212
aF131.0514308341567
aF125.10070955595971
aF119.55402271632504
aF114.3753431302503
aF109.53256841792613
aF104.9970623990872
aF100.74318297330683
aF96.74784280147203
aF92.99041220611173
aF89.45225498304325
aF86.1164066736089
aF82.96766979121928
aF79.99213062017287
aF77.17726634200919
aF74.5116207554895
aF71.98470534720666
aF69.58700442689302
aF67.3097946495817
aF65.145046461219
aF63.08541248682784
aF61.12414854591184
aF59.25501732054182
aF57.472296105373346
aF55.77069785619281
aF54.14530513038835
aF52.59161783183137
aF51.1054276331
aF49.68285355312775
aF48.32028204054846
aF47.01434322299409
aF45.76192417902976
aF44.56011716555963
aF43.406195073556496
aF42.297619331619714
aF41.23203709214544
aF40.207226255300625
aF39.221104736601134
aF38.27174334796416
aF37.35730869322131
aF36.47609497219848
aF35.62649079426669
aF34.80699362050684
aF34.01618788234515
aF33.25273676019883
aF32.5153734669947
aF31.802910585035402
aF31.114227993438888
aF30.4482734179538
aF29.80404297108548
aF29.180589121290165
aF28.577023071303778
aF27.992505306386054
aF27.426221333818305
aF26.877417777889594
aF26.345373933572375
aF25.829408802555125
aF25.32887407452002
aF24.84315273058913
aF24.371664072707894
aF23.913849412864405
aF23.469176865893292
aF23.037139409166407
aF22.617265914937043
aF22.209096227400916
aF21.812192776425523
aF21.42613966348636
aF21.050538238617243
aF20.685013337034366
aF20.329205307736512
aF19.982764342089144
aF19.64536740572153
aF19.316690467113094
aF18.996437863444847
aF18.684320054622784
aF18.38005936348564
aF18.083394904890323
aF17.794068812158716
aF17.511837335997186
aF17.236470260942237
aF16.967743810594396
aF16.70544420112649
aF16.449365265988284
aF16.19931073446693
aF15.955086070911998
aF15.716514054859315
aF15.483419894504987
aF15.255629718790834
aF15.0329871867687
aF14.815332995473133
aF14.602520276048505
aF14.394402915275906
aF14.190842310334926
aF13.991707205302156
aF13.796865989418015
aF13.606196304818486
aF13.419574713810913
aF13.236887529930797
aF13.058026196486171
aF12.882880271190002
aF12.711346383042692
aF12.543327173302819
aF12.378724440243714
aF12.217445705164286
aF12.059399958527491
aF11.904500715707474
aF11.752664675479993
aF11.603810076071857
aF11.45785734511112
aF11.314731649320956
aF11.174361449931142
aF11.036671065785276
aF10.901594253192403
aF10.769065044140882
aF10.639017524329025
aF10.511389989631354
aF10.386122999833152
aF10.263156434198702
aF10.142432908972424
aF10.023898676938265
aF9.907500681262354
aF9.793186947440018
aF9.68090651554631
aF9.57061201350862
aF9.462255865254454
aF9.35579132869246
aF9.251175298374747
aF9.14836332353489
aF9.04731452105889
aF8.947988612508249
aF8.850345856494297
aF8.754347565288333
aF8.659957364306141
aF8.567137794926099
aF8.475853886905853
aF8.386073374768417
aF8.29776013291742
aF8.210883765991232
aF8.12541185078722
aF8.041314497835712
aF7.958561924801426
aF7.8771242226271445
aF7.796974285564391
aF7.7180854511265435
aF7.640429801353822
aF7.563982611946572
aF7.488717557437261
aF7.414609515213845
aF7.341635568316922
aF7.269771965533828
aF7.198995487294892
aF7.129284768372018
aF7.060618368255321
aF6.992974833841273
aF6.926334261971673
aF6.860675433480036
aF6.795979734165841
aF6.732227881758503
aF6.669401946826389
aF6.607482895879103
aF6.546453503687201
aF6.486296740758997
aF6.426995194907858
aF6.368533488912991
aF6.3108945597866075
aF6.254063808889047
aF6.198024585286362
aF6.142762926775325
aF6.088264349694737
aF6.034514759197269
aF5.98150035446518
aF5.92920692502387
aF5.877622103064021
aF5.826732701987554
aF5.776525365723679
aF5.726988552788552
aF5.678109904605113
aF5.629877487714019
aF5.582280209962354
aF5.535306422526981
aF5.488945506493116
aF5.4431863462172165
aF5.398018763298473
aF5.353432069414585
aF5.309416280345609
aF5.2659612356276835
aF5.223057964343354
aF5.1806966956613785
aF5.13886829784038
aF5.097563783473414
aF5.056774133053422
aF5.016490992761157
aF4.9767051468970696
aF4.937409104746674
aF4.898594323423422
aF4.860253362665334
aF4.82237745921443
aF4.7849596876722655
aF4.747992572944851
aF4.711468839880643
aF4.675380991670109
aF4.639722022027929
aF4.604485153315491
aF4.569663571906696
aF4.5352509469207725
aF4.501240490581453
aF4.4676263213514575
aF4.434402139068722
aF4.401561282643689
aF4.36909829638431
aF4.337006899587239
aF4.305281707035311
aF4.273917004917713
aF4.242907419646903
aF4.21224704661041
aF4.181930962509332
aF4.151954029127581
aF4.122310572494945
aF4.09299604558496
aF4.064005469478978
aF4.035334126192607
aF4.006976957812028
aF3.978929287559022
aF3.9511867583604263
aF3.9237448482512973
aF3.8965990765599896
aF3.869745427254281
aF3.8431794735422016
aF3.8168970132866367
aF3.7908938787369473
aF3.7651663469168564
aF3.7397102206147186
aF3.7145215864204855
aF3.6895968764718545
aF3.6649322497034817
aF3.640523831865722
aF3.616368413620639
aF3.592462269542868
aF3.568802026135985
aF3.5453839869080555
aF3.5222050669111917
aF3.4992620010651567
aF3.476551396081132
aF3.45407010689008
aF3.43181488277895
aF3.4097828997598
aF3.3879709218519487
aF3.3663758543410403
aF3.344994972718945
aF3.3238255267391574
aF3.302864471387698
aF3.282109095305053
aF3.2615568534538704
aF3.241205037884385
aF3.2210509022831517
aF3.2010918442752505
aF3.1813251933456907
aF3.1617486107916215
aF3.1423596637795503
aF3.123155838253302
aF3.104134764598479
aF3.085293845097718
aF3.066631310102974
aF3.0481443419718195
aF3.0298309900504643
aF3.0116891219083857
aF2.9937163429647953
aF2.975910507857453
aF2.9582696050791437
aF2.9407916508580505
aF2.9234745368459816
aF2.9063164181057015
aF2.8893150776268013
aF2.8724685546166904
aF2.855775192297975
aF2.839233010760131
aF2.8228401481394005
aF2.806594600054138
aF2.7904949026685313
aF2.7745389904053033
aF2.758725390682628
aF2.743052215261212
aF2.727517774371871
aF2.712120510008082
aF2.696858724538793
aF2.6817309456586313
aF2.666735164384419
aF2.6518701543222893
aF2.637134315334939
aF2.622526117547994
aF2.6080441876432383
aF2.5936868053508646
aF2.579452574929748
aF2.565340304887634
aF2.551348524868161
aF2.5374755521604824
aF2.5237201230857655
aF2.5100811043684135
aF2.4965570293088004
aF2.483146569724438
aF2.469848501306483
aF2.4566614411687087
aF2.443584218167249
aF2.430615515192128
aF2.417754321270152
aF2.404999194417681
aF2.3923490302909207
aF2.379802646296116
aF2.3673588506605774
aF2.3550166859171204
aF2.342774871899874
aF2.330632387119083
aF2.318588042191757
aF2.306640878112277
aF2.2947898560678666
aF2.283033797741418
aF2.271371612941288
aF2.259802382647649
aF2.2483251901096586
aF2.2369390111128133
aF2.2256427564900547
aF2.2144355532205036
aF2.2033163430588445
aF2.1922844785379056
aF2.181338694369039
aF2.1704782588504843
aF2.159702245557855
aF2.1490098037452543
aF2.138399939572815
aF2.1278718148769817
aF2.1174247192339704
aF2.107057629903122
aF2.096769813795938
aF2.08656039512508
aF2.076428551205006
aF2.0663734967406846
aF2.0563945829747396
aF2.046490858840072
aF2.036661605505492
aF2.026906092410917
aF2.017223557581954
aF2.007613311751829
aF1.9980745654495027
aF1.9886067133836185
aF1.9792089065371115
aF1.9698805013298686
aF1.9606205905188725
aF1.951428762270667
aF1.9423042374217006
aF1.933246339598761
aF1.924254499836474
aF1.9153279314692189
aF1.9064660961008504
aF1.8976682330119596
aF1.8889338640071305
aF1.8802623453011869
aF1.8716530726471334
aF1.863105243043961
aF1.8546185580281016
aF1.8461922557365962
aF1.8378256589955417
aF1.829518365641566
aF1.8212697555850865
aF1.8130792807390985
aF1.8049463521355782
aF1.7968704125809898
aF1.7888510190827296
aF1.7808875214212456
aF1.7729794691650917
aF1.7651263174416365
aF1.7573275283810386
aF1.7495826014125253
aF1.74189105756122
aF1.7342523793406892
aF1.7266660471997621
aF1.719131596148567
aF1.711648527740781
aF1.704216355951807
aF1.6968346954984224
aF1.6895030258068273
aF1.6822208422749836
aF1.6749877513369182
aF1.667803285992747
aF1.6606669532484415
aF1.6535784682697814
aF1.646537253469413
aF1.639542966662995
aF1.6325951430924772
aF1.6256933242607488
aF1.6188371795116554
aF1.6120262352871295
aF1.6052601036287277
aF1.5985383708515644
aF1.5918606595519873
aF1.5852265915994104
aF1.5786357435627036
aF1.5720877436553558
aF1.5655822449647103
aF1.5591188622333998
aF1.5526972313145633
aF1.5463169907583827
aF1.5399777652291444
aF1.5336792411724383
aF1.5274209881697483
aF1.5212027160332118
aF1.5150239488917925
aF1.5088845158280426
aF1.5027839934369422
aF1.4967220359097166
aF1.49069836688174
aF1.4847126347769746
aF1.478764512583818
aF1.4728536561395285
aF1.4669797564353573
aF1.461142602462082
aF1.4553417284548382
aF1.4495769329055312
aF1.4438478708986544
aF1.4381542335637554
aF1.4324957257247284
aF1.4268720300463087
aF1.4212829154153066
aF1.4157280435859074
aF1.4102071666929858
aF1.4047199938945074
aF1.399266221447279
aF1.3938456410350195
aF1.3884578658441467
aF1.3831026813507625
aF1.377779873969043
aF1.3724891263241834
aF1.367230190047211
aF1.362002838875705
aF1.3568067161270212
aF1.3516416597430856
aF1.3465073912854595
aF1.3414036635619098
aF1.3363301997752213
aF1.3312868058899991
aF1.326273175561645
aF1.3212891837438474
aF1.3163344546486038
aF1.3114088101467114
aF1.306512034677205
aF1.3016438734388884
aF1.2968041323853996
aF1.2919925624981314
aF1.287208983734757
aF1.2824531400298456
aF1.2777247639392348
aF1.2730237086222533
aF1.2683497694536228
aF1.2637026540476526
aF1.2590822318177803
aF1.2544882381793543
aF1.2499205586560416
aF1.2453789336730312
aF1.2408631132118144
aF1.2363729843552178
aF1.2319082691396606
aF1.2274687849632693
aF1.223054365366569
aF1.2186648440968804
aF1.2142999879172982
aF1.209959583406103
aF1.2056435371328829
aF1.2013515812366473
aF1.1970835706517287
aF1.1928393087305635
aF1.1886186330885309
aF1.1844213663352718
aF1.1802473025683602
aF1.176096300374868
assssssS'cyc_word_embeddings_cyc_sgd'
p27
g1
(g2
tp28
Rp29
I500
g1
(g2
tp30
Rp31
I80000
g1
(g2
tp32
Rp33
I8
g1
(g2
tp34
Rp35
I30
g1
(g2
tp36
Rp37
I1
(lp38
F1245.2502846059813
aF1074.0601035638551
aF936.2937938873337
aF823.7409820835983
aF730.573216873798
aF652.5587490200451
aF586.5639663552846
aF530.2276974815765
aF481.74304843618773
aF439.707985273788
aF403.02094784121147
aF370.80660985243213
aF342.3622200970519
aF317.11824625118504
aF294.60911999202796
aF274.4512223519149
aF256.32612941204377
aF239.96772785572423
aF225.15221047840802
aF211.6902380062907
aF199.4207466930942
aF188.2060178779747
aF177.92772361051743
aF168.48373336289293
aF159.7855187299223
aF151.7560313437428
aF144.32795779586922
aF137.4422768361619
aF131.04706039244795
aF125.09647238225051
aF119.54992884585955
aF114.37139033073291
aF109.5287632254142
aF104.99339126414645
aF100.73962199071745
aF96.74443579976112
aF92.98712742990556
aF89.44903159136526
aF86.11328586666647
aF82.9646252013999
aF79.9892032592533
aF77.17443669700035
aF74.50886905537759
aF71.98205148873727
aF69.58443799111471
aF67.30729313725342
aF65.14261065673472
aF63.08304140977762
aF61.121829542732065
aF59.25275577728924
aF57.470086935721504
aF55.76853092951138
aF54.14319654515583
aF52.589557450794004
aF51.10341992422333
aF49.68089386848898
aF48.31836673723943
aF47.01248004038541
aF45.760108141841364
aF44.55833909709538
aF43.40445730898976
aF42.295927806977204
aF41.230381978225154
aF40.20560459915207
aF39.21952203349125
aF38.27019147832774
aF37.35579115297776
aF36.4746113372291
aF35.625046175869
aF34.80558617541137
aF34.01481132689278
aF33.25138479567873
aF32.5140471253984
aF31.80161090860921
aF31.112955881682485
aF30.447024405692456
aF29.802817298928616
aF29.179389990064717
aF28.575848964048898
aF27.991348475520645
aF27.42508750691942
aF26.87630695066771
aF26.344286996758424
aF25.828344708728846
aF25.32783177270436
aF24.84213240544225
aF24.37066140870528
aF23.9128623583229
aF23.468205917409435
aF23.03618826405981
aF22.616329624737165
aF22.2081729052862
aF21.811282412213924
aF21.425242657476776
aF21.049657240596776
aF20.684147802438783
aF20.32835304542489
aF19.981927815405314
aF19.644542240798994
aF19.315880924921913
aF18.99564218779904
aF18.683537354014465
aF18.37929008341751
aF18.082635741768293
aF17.793320808616997
aF17.51110231990578
aF17.2357473429992
aF16.96703248198166
aF16.704743411266072
aF16.44867443563964
aF16.198628075078975
aF15.95441467273555
aF15.715852024610793
aF15.48276502958826
aF15.254985358525406
aF15.032351141233654
aF14.814706670253749
aF14.601902120396158
aF14.393793283097832
aF14.190241314702455
aF13.991112497832276
aF13.796278015092234
aF13.605613734359162
aF13.419000005004358
aF13.23632146440217
aF13.057466854139394
aF12.882328845375906
aF12.710803872830054
aF12.542791976915066
aF12.37819665356058
aF12.216924711306207
aF12.05888613525195
aF11.903993957510682
aF11.752164133783165
aF11.603315425757053
aF11.457369288991217
aF11.314249766008334
aF11.173883384320371
aF11.036199059119738
aF10.901128000401162
aF10.768603624285747
aF10.638561468315421
aF10.51093911054767
aF10.385676092215014
aF10.26271384380546
aF10.14199561437582
aF10.02346640393425
aF9.907072898753663
aF9.792763409455576
aF9.680487811745067
aF9.570197489650635
aF9.461845281166607
aF9.355385426167866
aF9.250773516495101
aF9.147966448108024
aF9.046922375206513
aF8.947600666232336
aF8.849961861653439
aF8.753967633463523
aF8.65958074630082
aF8.566765020130234
aF8.475485294398638
aF8.385707393616734
aF8.297398094279938
aF8.210525093094827
aF8.12505697643031
aF8.040963190951647
aF7.958214015382278
aF7.876780533345293
aF7.796634607233543
aF7.717748853069333
aF7.640096616306566
aF7.563651948540003
aF7.488389585075975
aF7.414284923335794
aF7.3413140020504475
aF7.2694534812184575
aF7.198680622790177
aF7.128973272055449
aF7.0603098396943285
aF6.9926692844771825
aF6.926031096579125
aF6.860375281481905
aF6.7956823444496415
aF6.731933275545654
aF6.669109535170628
aF6.607193040107792
aF6.546166150045737
aF6.486011654566394
aF6.426712760579827
aF6.368253080182451
aF6.310616618931436
aF6.253787764509071
aF6.197751275773328
aF6.142492272168408
aF6.087996223491163
aF6.034248939992824
aF5.981236562806922
aF5.928945554693989
aF5.877362691082188
aF5.82647505140411
aF5.776270010708566
aF5.726735231546031
aF5.677858656108819
aF5.629628498627852
aF5.582033238003766
aF5.535061610674328
aF5.488702603706146
aF5.442945448099593
aF5.3977796123041015
aF5.353194795933273
aF5.309180923675501
aF5.265728139388803
aF5.222826800378567
aF5.1804674718480435
aF5.138640921517725
aF5.097338114406238
aF5.056550207768105
aF5.016268546184616
aF4.976484656797205
aF4.9371902446852065
aF4.898377188379738
aF4.8600375355070975
aF4.8221634985632615
aF4.784747450807566
aF4.747781922279022
aF4.711259595924448
aF4.675173303841794
aF4.639516023627637
aF4.604280874830722
aF4.569461115505209
aF4.535050138863382
aF4.50104147002007
aF4.467428762831256
aF4.4342057968176665
aF4.401366474177456
aF4.3689048168793505
aF4.336814963837826
aF4.305091168163515
aF4.273727794491997
aF4.242719316383038
aF4.212060313792233
aF4.181745470608821
aF4.151769572263218
aF4.122127503396
aF4.092814245590012
aF4.063824875163144
aF4.035154561020886
aF4.00679856256265
aF3.978752227646929
aF3.951010990606592
aF3.923570370317371
aF3.8964259683187312
aF3.8695734669791397
aF3.8430086277132447
aF3.816727289240321
aF3.7907253658933384
aF3.7649988459652093
aF3.73954379010019
aF3.714356329727265
aF3.6894326655303007
aF3.6647690659577257
aF3.6403618657709274
aF3.6162074646279634
aF3.5923023257007847
aF3.5686429743311594
aF3.5452259967151245
aF3.522048038622621
aF3.499105804148361
aF3.4763960544915755
aF3.4539156067681454
aF3.4316613328493077
aF3.4096301582294384
aF3.387819060921114
aF3.366225070376689
aF3.3448452664356445
aF3.323676778297717
aF3.3027167835184232
aF3.281962507031052
aF3.2614112201903405
aF3.241060239838427
aF3.220906927393968
aF3.200948687960289
aF3.1811829694578817
aF3.1616072617728164
aF3.142219095928424
aF3.12301604327388
aF3.1039957146932458
aF3.0851557598299193
aF3.066493866332635
aF3.0480077591145323
aF3.029695199632123
aF3.0115539851791437
aF2.993581948196783
aF2.975776955598989
aF2.958136908113388
aF2.9406597396359624
aF2.923343416602304
aF2.9061859373695826
aF2.889185331615164
aF2.87233965974623
aF2.8556470123241886
aF2.839105509500421
aF2.8227133004647134
aF2.806468562905975
aF2.790369502483913
aF2.7744143523134754
aF2.758601372458814
aF2.742928849439008
aF2.7273950957442223
aF2.7119984493627585
aF2.6967372733169563
aF2.68160995520968
aF2.666614906780159
aF2.6517505634699177
aF2.63701538399716
aF2.6224078499396297
aF2.6079264653270036
aF2.5935697562417452
aF2.579336270427546
aF2.5652245769068833
aF2.5512332656056924
aF2.537360946985586
aF2.5236062516845035
aF2.509967830164148
aF2.4964443523645024
aF2.4830345073658324
aF2.4697370030570274
aF2.456550565811312
aF2.4434739401672783
aF2.4305058885181667
aF2.417645190805266
aF2.404890644219414
aF2.392241062907168
aF2.379695277682918
aF2.3672521357473864
aF2.3549105004110014
aF2.3426692508232563
aF2.3305272817067846
aF2.3184835030971325
aF2.306536840087707
aF2.294686232578705
aF2.282930635032534
aF2.2712690162323264
aF2.2597003590463802
aF2.2482236601962935
aF2.2368379300301355
aF2.22554219229941
aF2.21433548394111
aF2.203216854862416
aF2.192185367731527
aF2.1812400977704867
aF2.1703801325535905
aF2.1596045718080235
aF2.1489125272198555
aF2.138303122241647
aF2.1277754919062435
aF2.11732878264163
aF2.1069621520907846
aF2.0966747689334118
aF2.086465812713251
aF2.0763344736661113
aF2.0662799525526077
aF2.056301460492769
aF2.0463982188058747
aF2.036569458849944
aF2.0268144218674227
aF2.0171323588311854
aF2.0075225302945308
aF1.9979842062442241
aF1.9885166659545572
aF1.9791191978463056
aF1.969791099345937
aF1.9605316767489764
aF1.9513402450849018
aF1.9422161279851442
aF1.9331586575526278
aF1.9241671742341053
aF1.9152410266948328
aF1.906379571695125
aF1.8975821739691643
aF1.8888482061061085
aF1.8801770484331242
aF1.8715680889002033
aF1.8630207229678348
aF1.854534353495399
aF1.8461083906325306
aF1.8377422517117519
aF1.8294353611432979
aF1.8211871503113408
aF1.8129970574725236
aF1.8048645276556445
aF1.7967890125638195
aF1.7887699704770885
aF1.7808068661581602
aF1.7728991707584372
aF1.7650463617264331
aF1.7572479227174946
aF1.7495033435048275
aF1.7418121198924545
aF1.7341737536290933
aF1.7265877523240265
aF1.719053629363704
aF1.7115709038307307
aF1.704139100422652
aF1.696757749373943
aF1.6894263863774348
aF1.6821445525088583
aF1.6749117941509228
aF1.6677276629198232
aF1.660591715592016
aF1.653503514033484
aF1.646462625128645
aF1.6394686207112528
aF1.6325210774967163
aF1.6256195770144084
aF1.6187637055422184
aF1.6119530540413132
aF1.6051872180924318
aF1.5984657978333259
aF1.5917883978961997
aF1.5851546273473134
aF1.5785640996273966
aF1.5720164324919388
aF1.5655112479536415
aF1.5590481722252696
aF1.552626835663363
aF1.546246872712832
aF1.5399079218525564
aF1.5336096255418141
aF1.5273516301673846
aF1.5211335859915214
aF1.5149551471009104
aF1.5088159713563638
aF1.502715720342895
aF1.4966540593212465
aF1.4906306571794017
aF1.484645186385741
aF1.4786973229418512
aF1.4727867463368252
aF1.466913139502251
aF1.4610761887672643
aF1.4552755838150737
aF1.4495110176394093
aF1.443782186502247
aF1.4380887898915895
aF1.4324305304806098
aF1.4268071140862417
aF1.421218249630275
aF1.4156636490986612
aF1.4101430275033584
aF1.4046561028437603
aF1.3992025960692602
aF1.3937822310414911
aF1.3883947344984058
aF1.383039836017664
aF1.377717267981153
aF1.372426765540191
aF1.367168066580821
aF1.3619409116896357
aF1.356745044120428
aF1.351580209761229
aF1.3464461571015618
aF1.3413426372003783
aF1.3362694036544418
aF1.3312262125672827
aF1.3262128225182173
aF1.3212289945321232
aF1.3162744920499183
aF1.3113490808985104
aF1.3064525292623146
aF1.301584607654552
aF1.2967450888887775
aF1.2919337480512614
aF1.287150362473898
aF1.2823947117065286
aF1.2776665774910199
aF1.2729657437342965
aF1.2682919964830532
aF1.263645123897925
aF1.2590249162283884
aF1.254431165787769
aF1.2498636669290861
aF1.2453222160204995
aF1.2408066114219614
aF1.236316653461473
aF1.2318521444118302
aF1.227412888467995
aF1.2229986917244846
aF1.2186093621533431
aF1.2142447095818385
aF1.2099045456711242
aF1.205588683894913
aF1.2012969395184856
aF1.1970291295777487
aF1.1927850728589422
aF1.188564589878475
aF1.1843675028628664
aF1.1801936357293594
aF1.176042814066009
asssI1
g1
(g2
tp39
Rp40
I30
g1
(g2
tp41
Rp42
I1
(lp43
F1245.2502846059813
aF1074.0601035638551
aF936.2937938873337
aF823.7409820835983
aF730.573216873798
aF652.5587490200451
aF586.5639663552846
aF530.2276974815765
aF481.74304843618773
aF439.707985273788
aF403.02094784121147
aF370.80660985243213
aF342.3622200970519
aF317.11824625118504
aF294.60911999202796
aF274.4512223519149
aF256.32612941204377
aF239.96772785572423
aF225.15221047840802
aF211.6902380062907
aF199.4207466930942
aF188.2060178779747
aF177.92772361051743
aF168.48373336289293
aF159.7855187299223
aF151.7560313437428
aF144.32795779586922
aF137.4422768361619
aF131.04706039244795
aF125.09647238225051
aF119.54992884585955
aF114.37139033073291
aF109.5287632254142
aF104.99339126414645
aF100.73962199071745
aF96.74443579976112
aF92.98712742990556
aF89.44903159136526
aF86.11328586666647
aF82.9646252013999
aF79.9892032592533
aF77.17443669700035
aF74.50886905537759
aF71.98205148873727
aF69.58443799111471
aF67.30729313725342
aF65.14261065673472
aF63.08304140977762
aF61.121829542732065
aF59.25275577728924
aF57.470086935721504
aF55.76853092951138
aF54.14319654515583
aF52.589557450794004
aF51.10341992422333
aF49.68089386848898
aF48.31836673723943
aF47.01248004038541
aF45.760108141841364
aF44.55833909709538
aF43.40445730898976
aF42.295927806977204
aF41.230381978225154
aF40.20560459915207
aF39.21952203349125
aF38.27019147832774
aF37.35579115297776
aF36.4746113372291
aF35.625046175869
aF34.80558617541137
aF34.01481132689278
aF33.25138479567873
aF32.5140471253984
aF31.80161090860921
aF31.112955881682485
aF30.447024405692456
aF29.802817298928616
aF29.179389990064717
aF28.575848964048898
aF27.991348475520645
aF27.42508750691942
aF26.87630695066771
aF26.344286996758424
aF25.828344708728846
aF25.32783177270436
aF24.84213240544225
aF24.37066140870528
aF23.9128623583229
aF23.468205917409435
aF23.03618826405981
aF22.616329624737165
aF22.2081729052862
aF21.811282412213924
aF21.425242657476776
aF21.049657240596776
aF20.684147802438783
aF20.32835304542489
aF19.981927815405314
aF19.644542240798994
aF19.315880924921913
aF18.99564218779904
aF18.683537354014465
aF18.37929008341751
aF18.082635741768293
aF17.793320808616997
aF17.51110231990578
aF17.2357473429992
aF16.96703248198166
aF16.704743411266072
aF16.44867443563964
aF16.198628075078975
aF15.95441467273555
aF15.715852024610793
aF15.48276502958826
aF15.254985358525406
aF15.032351141233654
aF14.814706670253749
aF14.601902120396158
aF14.393793283097832
aF14.190241314702455
aF13.991112497832276
aF13.796278015092234
aF13.605613734359162
aF13.419000005004358
aF13.23632146440217
aF13.057466854139394
aF12.882328845375906
aF12.710803872830054
aF12.542791976915066
aF12.37819665356058
aF12.216924711306207
aF12.05888613525195
aF11.903993957510682
aF11.752164133783165
aF11.603315425757053
aF11.457369288991217
aF11.314249766008334
aF11.173883384320371
aF11.036199059119738
aF10.901128000401162
aF10.768603624285747
aF10.638561468315421
aF10.51093911054767
aF10.385676092215014
aF10.26271384380546
aF10.14199561437582
aF10.02346640393425
aF9.907072898753663
aF9.792763409455576
aF9.680487811745067
aF9.570197489650635
aF9.461845281166607
aF9.355385426167866
aF9.250773516495101
aF9.147966448108024
aF9.046922375206513
aF8.947600666232336
aF8.849961861653439
aF8.753967633463523
aF8.65958074630082
aF8.566765020130234
aF8.475485294398638
aF8.385707393616734
aF8.297398094279938
aF8.210525093094827
aF8.12505697643031
aF8.040963190951647
aF7.958214015382278
aF7.876780533345293
aF7.796634607233543
aF7.717748853069333
aF7.640096616306566
aF7.563651948540003
aF7.488389585075975
aF7.414284923335794
aF7.3413140020504475
aF7.2694534812184575
aF7.198680622790177
aF7.128973272055449
aF7.0603098396943285
aF6.9926692844771825
aF6.926031096579125
aF6.860375281481905
aF6.7956823444496415
aF6.731933275545654
aF6.669109535170628
aF6.607193040107792
aF6.546166150045737
aF6.486011654566394
aF6.426712760579827
aF6.368253080182451
aF6.310616618931436
aF6.253787764509071
aF6.197751275773328
aF6.142492272168408
aF6.087996223491163
aF6.034248939992824
aF5.981236562806922
aF5.928945554693989
aF5.877362691082188
aF5.82647505140411
aF5.776270010708566
aF5.726735231546031
aF5.677858656108819
aF5.629628498627852
aF5.582033238003766
aF5.535061610674328
aF5.488702603706146
aF5.442945448099593
aF5.3977796123041015
aF5.353194795933273
aF5.309180923675501
aF5.265728139388803
aF5.222826800378567
aF5.1804674718480435
aF5.138640921517725
aF5.097338114406238
aF5.056550207768105
aF5.016268546184616
aF4.976484656797205
aF4.9371902446852065
aF4.898377188379738
aF4.8600375355070975
aF4.8221634985632615
aF4.784747450807566
aF4.747781922279022
aF4.711259595924448
aF4.675173303841794
aF4.639516023627637
aF4.604280874830722
aF4.569461115505209
aF4.535050138863382
aF4.50104147002007
aF4.467428762831256
aF4.4342057968176665
aF4.401366474177456
aF4.3689048168793505
aF4.336814963837826
aF4.305091168163515
aF4.273727794491997
aF4.242719316383038
aF4.212060313792233
aF4.181745470608821
aF4.151769572263218
aF4.122127503396
aF4.092814245590012
aF4.063824875163144
aF4.035154561020886
aF4.00679856256265
aF3.978752227646929
aF3.951010990606592
aF3.923570370317371
aF3.8964259683187312
aF3.8695734669791397
aF3.8430086277132447
aF3.816727289240321
aF3.7907253658933384
aF3.7649988459652093
aF3.73954379010019
aF3.714356329727265
aF3.6894326655303007
aF3.6647690659577257
aF3.6403618657709274
aF3.6162074646279634
aF3.5923023257007847
aF3.5686429743311594
aF3.5452259967151245
aF3.522048038622621
aF3.499105804148361
aF3.4763960544915755
aF3.4539156067681454
aF3.4316613328493077
aF3.4096301582294384
aF3.387819060921114
aF3.366225070376689
aF3.3448452664356445
aF3.323676778297717
aF3.3027167835184232
aF3.281962507031052
aF3.2614112201903405
aF3.241060239838427
aF3.220906927393968
aF3.200948687960289
aF3.1811829694578817
aF3.1616072617728164
aF3.142219095928424
aF3.12301604327388
aF3.1039957146932458
aF3.0851557598299193
aF3.066493866332635
aF3.0480077591145323
aF3.029695199632123
aF3.0115539851791437
aF2.993581948196783
aF2.975776955598989
aF2.958136908113388
aF2.9406597396359624
aF2.923343416602304
aF2.9061859373695826
aF2.889185331615164
aF2.87233965974623
aF2.8556470123241886
aF2.839105509500421
aF2.8227133004647134
aF2.806468562905975
aF2.790369502483913
aF2.7744143523134754
aF2.758601372458814
aF2.742928849439008
aF2.7273950957442223
aF2.7119984493627585
aF2.6967372733169563
aF2.68160995520968
aF2.666614906780159
aF2.6517505634699177
aF2.63701538399716
aF2.6224078499396297
aF2.6079264653270036
aF2.5935697562417452
aF2.579336270427546
aF2.5652245769068833
aF2.5512332656056924
aF2.537360946985586
aF2.5236062516845035
aF2.509967830164148
aF2.4964443523645024
aF2.4830345073658324
aF2.4697370030570274
aF2.456550565811312
aF2.4434739401672783
aF2.4305058885181667
aF2.417645190805266
aF2.404890644219414
aF2.392241062907168
aF2.379695277682918
aF2.3672521357473864
aF2.3549105004110014
aF2.3426692508232563
aF2.3305272817067846
aF2.3184835030971325
aF2.306536840087707
aF2.294686232578705
aF2.282930635032534
aF2.2712690162323264
aF2.2597003590463802
aF2.2482236601962935
aF2.2368379300301355
aF2.22554219229941
aF2.21433548394111
aF2.203216854862416
aF2.192185367731527
aF2.1812400977704867
aF2.1703801325535905
aF2.1596045718080235
aF2.1489125272198555
aF2.138303122241647
aF2.1277754919062435
aF2.11732878264163
aF2.1069621520907846
aF2.0966747689334118
aF2.086465812713251
aF2.0763344736661113
aF2.0662799525526077
aF2.056301460492769
aF2.0463982188058747
aF2.036569458849944
aF2.0268144218674227
aF2.0171323588311854
aF2.0075225302945308
aF1.9979842062442241
aF1.9885166659545572
aF1.9791191978463056
aF1.969791099345937
aF1.9605316767489764
aF1.9513402450849018
aF1.9422161279851442
aF1.9331586575526278
aF1.9241671742341053
aF1.9152410266948328
aF1.906379571695125
aF1.8975821739691643
aF1.8888482061061085
aF1.8801770484331242
aF1.8715680889002033
aF1.8630207229678348
aF1.854534353495399
aF1.8461083906325306
aF1.8377422517117519
aF1.8294353611432979
aF1.8211871503113408
aF1.8129970574725236
aF1.8048645276556445
aF1.7967890125638195
aF1.7887699704770885
aF1.7808068661581602
aF1.7728991707584372
aF1.7650463617264331
aF1.7572479227174946
aF1.7495033435048275
aF1.7418121198924545
aF1.7341737536290933
aF1.7265877523240265
aF1.719053629363704
aF1.7115709038307307
aF1.704139100422652
aF1.696757749373943
aF1.6894263863774348
aF1.6821445525088583
aF1.6749117941509228
aF1.6677276629198232
aF1.660591715592016
aF1.653503514033484
aF1.646462625128645
aF1.6394686207112528
aF1.6325210774967163
aF1.6256195770144084
aF1.6187637055422184
aF1.6119530540413132
aF1.6051872180924318
aF1.5984657978333259
aF1.5917883978961997
aF1.5851546273473134
aF1.5785640996273966
aF1.5720164324919388
aF1.5655112479536415
aF1.5590481722252696
aF1.552626835663363
aF1.546246872712832
aF1.5399079218525564
aF1.5336096255418141
aF1.5273516301673846
aF1.5211335859915214
aF1.5149551471009104
aF1.5088159713563638
aF1.502715720342895
aF1.4966540593212465
aF1.4906306571794017
aF1.484645186385741
aF1.4786973229418512
aF1.4727867463368252
aF1.466913139502251
aF1.4610761887672643
aF1.4552755838150737
aF1.4495110176394093
aF1.443782186502247
aF1.4380887898915895
aF1.4324305304806098
aF1.4268071140862417
aF1.421218249630275
aF1.4156636490986612
aF1.4101430275033584
aF1.4046561028437603
aF1.3992025960692602
aF1.3937822310414911
aF1.3883947344984058
aF1.383039836017664
aF1.377717267981153
aF1.372426765540191
aF1.367168066580821
aF1.3619409116896357
aF1.356745044120428
aF1.351580209761229
aF1.3464461571015618
aF1.3413426372003783
aF1.3362694036544418
aF1.3312262125672827
aF1.3262128225182173
aF1.3212289945321232
aF1.3162744920499183
aF1.3113490808985104
aF1.3064525292623146
aF1.301584607654552
aF1.2967450888887775
aF1.2919337480512614
aF1.287150362473898
aF1.2823947117065286
aF1.2776665774910199
aF1.2729657437342965
aF1.2682919964830532
aF1.263645123897925
aF1.2590249162283884
aF1.254431165787769
aF1.2498636669290861
aF1.2453222160204995
aF1.2408066114219614
aF1.236316653461473
aF1.2318521444118302
aF1.227412888467995
aF1.2229986917244846
aF1.2186093621533431
aF1.2142447095818385
aF1.2099045456711242
aF1.205588683894913
aF1.2012969395184856
aF1.1970291295777487
aF1.1927850728589422
aF1.188564589878475
aF1.1843675028628664
aF1.1801936357293594
aF1.176042814066009
asssI4
g1
(g2
tp44
Rp45
I30
g1
(g2
tp46
Rp47
I1
(lp48
F1245.2502846059813
aF1074.0601035638551
aF936.2937938873337
aF823.7409820835983
aF730.573216873798
aF652.5587490200451
aF586.5639663552846
aF530.2276974815765
aF481.74304843618773
aF439.707985273788
aF403.02094784121147
aF370.80660985243213
aF342.3622200970519
aF317.11824625118504
aF294.60911999202796
aF274.4512223519149
aF256.32612941204377
aF239.96772785572423
aF225.15221047840802
aF211.6902380062907
aF199.4207466930942
aF188.2060178779747
aF177.92772361051743
aF168.48373336289293
aF159.7855187299223
aF151.7560313437428
aF144.32795779586922
aF137.4422768361619
aF131.04706039244795
aF125.09647238225051
aF119.54992884585955
aF114.37139033073291
aF109.5287632254142
aF104.99339126414645
aF100.73962199071745
aF96.74443579976112
aF92.98712742990556
aF89.44903159136526
aF86.11328586666647
aF82.9646252013999
aF79.9892032592533
aF77.17443669700035
aF74.50886905537759
aF71.98205148873727
aF69.58443799111471
aF67.30729313725342
aF65.14261065673472
aF63.08304140977762
aF61.121829542732065
aF59.25275577728924
aF57.470086935721504
aF55.76853092951138
aF54.14319654515583
aF52.589557450794004
aF51.10341992422333
aF49.68089386848898
aF48.31836673723943
aF47.01248004038541
aF45.760108141841364
aF44.55833909709538
aF43.40445730898976
aF42.295927806977204
aF41.230381978225154
aF40.20560459915207
aF39.21952203349125
aF38.27019147832774
aF37.35579115297776
aF36.4746113372291
aF35.625046175869
aF34.80558617541137
aF34.01481132689278
aF33.25138479567873
aF32.5140471253984
aF31.80161090860921
aF31.112955881682485
aF30.447024405692456
aF29.802817298928616
aF29.179389990064717
aF28.575848964048898
aF27.991348475520645
aF27.42508750691942
aF26.87630695066771
aF26.344286996758424
aF25.828344708728846
aF25.32783177270436
aF24.84213240544225
aF24.37066140870528
aF23.9128623583229
aF23.468205917409435
aF23.03618826405981
aF22.616329624737165
aF22.2081729052862
aF21.811282412213924
aF21.425242657476776
aF21.049657240596776
aF20.684147802438783
aF20.32835304542489
aF19.981927815405314
aF19.644542240798994
aF19.315880924921913
aF18.99564218779904
aF18.683537354014465
aF18.37929008341751
aF18.082635741768293
aF17.793320808616997
aF17.51110231990578
aF17.2357473429992
aF16.96703248198166
aF16.704743411266072
aF16.44867443563964
aF16.198628075078975
aF15.95441467273555
aF15.715852024610793
aF15.48276502958826
aF15.254985358525406
aF15.032351141233654
aF14.814706670253749
aF14.601902120396158
aF14.393793283097832
aF14.190241314702455
aF13.991112497832276
aF13.796278015092234
aF13.605613734359162
aF13.419000005004358
aF13.23632146440217
aF13.057466854139394
aF12.882328845375906
aF12.710803872830054
aF12.542791976915066
aF12.37819665356058
aF12.216924711306207
aF12.05888613525195
aF11.903993957510682
aF11.752164133783165
aF11.603315425757053
aF11.457369288991217
aF11.314249766008334
aF11.173883384320371
aF11.036199059119738
aF10.901128000401162
aF10.768603624285747
aF10.638561468315421
aF10.51093911054767
aF10.385676092215014
aF10.26271384380546
aF10.14199561437582
aF10.02346640393425
aF9.907072898753663
aF9.792763409455576
aF9.680487811745067
aF9.570197489650635
aF9.461845281166607
aF9.355385426167866
aF9.250773516495101
aF9.147966448108024
aF9.046922375206513
aF8.947600666232336
aF8.849961861653439
aF8.753967633463523
aF8.65958074630082
aF8.566765020130234
aF8.475485294398638
aF8.385707393616734
aF8.297398094279938
aF8.210525093094827
aF8.12505697643031
aF8.040963190951647
aF7.958214015382278
aF7.876780533345293
aF7.796634607233543
aF7.717748853069333
aF7.640096616306566
aF7.563651948540003
aF7.488389585075975
aF7.414284923335794
aF7.3413140020504475
aF7.2694534812184575
aF7.198680622790177
aF7.128973272055449
aF7.0603098396943285
aF6.9926692844771825
aF6.926031096579125
aF6.860375281481905
aF6.7956823444496415
aF6.731933275545654
aF6.669109535170628
aF6.607193040107792
aF6.546166150045737
aF6.486011654566394
aF6.426712760579827
aF6.368253080182451
aF6.310616618931436
aF6.253787764509071
aF6.197751275773328
aF6.142492272168408
aF6.087996223491163
aF6.034248939992824
aF5.981236562806922
aF5.928945554693989
aF5.877362691082188
aF5.82647505140411
aF5.776270010708566
aF5.726735231546031
aF5.677858656108819
aF5.629628498627852
aF5.582033238003766
aF5.535061610674328
aF5.488702603706146
aF5.442945448099593
aF5.3977796123041015
aF5.353194795933273
aF5.309180923675501
aF5.265728139388803
aF5.222826800378567
aF5.1804674718480435
aF5.138640921517725
aF5.097338114406238
aF5.056550207768105
aF5.016268546184616
aF4.976484656797205
aF4.9371902446852065
aF4.898377188379738
aF4.8600375355070975
aF4.8221634985632615
aF4.784747450807566
aF4.747781922279022
aF4.711259595924448
aF4.675173303841794
aF4.639516023627637
aF4.604280874830722
aF4.569461115505209
aF4.535050138863382
aF4.50104147002007
aF4.467428762831256
aF4.4342057968176665
aF4.401366474177456
aF4.3689048168793505
aF4.336814963837826
aF4.305091168163515
aF4.273727794491997
aF4.242719316383038
aF4.212060313792233
aF4.181745470608821
aF4.151769572263218
aF4.122127503396
aF4.092814245590012
aF4.063824875163144
aF4.035154561020886
aF4.00679856256265
aF3.978752227646929
aF3.951010990606592
aF3.923570370317371
aF3.8964259683187312
aF3.8695734669791397
aF3.8430086277132447
aF3.816727289240321
aF3.7907253658933384
aF3.7649988459652093
aF3.73954379010019
aF3.714356329727265
aF3.6894326655303007
aF3.6647690659577257
aF3.6403618657709274
aF3.6162074646279634
aF3.5923023257007847
aF3.5686429743311594
aF3.5452259967151245
aF3.522048038622621
aF3.499105804148361
aF3.4763960544915755
aF3.4539156067681454
aF3.4316613328493077
aF3.4096301582294384
aF3.387819060921114
aF3.366225070376689
aF3.3448452664356445
aF3.323676778297717
aF3.3027167835184232
aF3.281962507031052
aF3.2614112201903405
aF3.241060239838427
aF3.220906927393968
aF3.200948687960289
aF3.1811829694578817
aF3.1616072617728164
aF3.142219095928424
aF3.12301604327388
aF3.1039957146932458
aF3.0851557598299193
aF3.066493866332635
aF3.0480077591145323
aF3.029695199632123
aF3.0115539851791437
aF2.993581948196783
aF2.975776955598989
aF2.958136908113388
aF2.9406597396359624
aF2.923343416602304
aF2.9061859373695826
aF2.889185331615164
aF2.87233965974623
aF2.8556470123241886
aF2.839105509500421
aF2.8227133004647134
aF2.806468562905975
aF2.790369502483913
aF2.7744143523134754
aF2.758601372458814
aF2.742928849439008
aF2.7273950957442223
aF2.7119984493627585
aF2.6967372733169563
aF2.68160995520968
aF2.666614906780159
aF2.6517505634699177
aF2.63701538399716
aF2.6224078499396297
aF2.6079264653270036
aF2.5935697562417452
aF2.579336270427546
aF2.5652245769068833
aF2.5512332656056924
aF2.537360946985586
aF2.5236062516845035
aF2.509967830164148
aF2.4964443523645024
aF2.4830345073658324
aF2.4697370030570274
aF2.456550565811312
aF2.4434739401672783
aF2.4305058885181667
aF2.417645190805266
aF2.404890644219414
aF2.392241062907168
aF2.379695277682918
aF2.3672521357473864
aF2.3549105004110014
aF2.3426692508232563
aF2.3305272817067846
aF2.3184835030971325
aF2.306536840087707
aF2.294686232578705
aF2.282930635032534
aF2.2712690162323264
aF2.2597003590463802
aF2.2482236601962935
aF2.2368379300301355
aF2.22554219229941
aF2.21433548394111
aF2.203216854862416
aF2.192185367731527
aF2.1812400977704867
aF2.1703801325535905
aF2.1596045718080235
aF2.1489125272198555
aF2.138303122241647
aF2.1277754919062435
aF2.11732878264163
aF2.1069621520907846
aF2.0966747689334118
aF2.086465812713251
aF2.0763344736661113
aF2.0662799525526077
aF2.056301460492769
aF2.0463982188058747
aF2.036569458849944
aF2.0268144218674227
aF2.0171323588311854
aF2.0075225302945308
aF1.9979842062442241
aF1.9885166659545572
aF1.9791191978463056
aF1.969791099345937
aF1.9605316767489764
aF1.9513402450849018
aF1.9422161279851442
aF1.9331586575526278
aF1.9241671742341053
aF1.9152410266948328
aF1.906379571695125
aF1.8975821739691643
aF1.8888482061061085
aF1.8801770484331242
aF1.8715680889002033
aF1.8630207229678348
aF1.854534353495399
aF1.8461083906325306
aF1.8377422517117519
aF1.8294353611432979
aF1.8211871503113408
aF1.8129970574725236
aF1.8048645276556445
aF1.7967890125638195
aF1.7887699704770885
aF1.7808068661581602
aF1.7728991707584372
aF1.7650463617264331
aF1.7572479227174946
aF1.7495033435048275
aF1.7418121198924545
aF1.7341737536290933
aF1.7265877523240265
aF1.719053629363704
aF1.7115709038307307
aF1.704139100422652
aF1.696757749373943
aF1.6894263863774348
aF1.6821445525088583
aF1.6749117941509228
aF1.6677276629198232
aF1.660591715592016
aF1.653503514033484
aF1.646462625128645
aF1.6394686207112528
aF1.6325210774967163
aF1.6256195770144084
aF1.6187637055422184
aF1.6119530540413132
aF1.6051872180924318
aF1.5984657978333259
aF1.5917883978961997
aF1.5851546273473134
aF1.5785640996273966
aF1.5720164324919388
aF1.5655112479536415
aF1.5590481722252696
aF1.552626835663363
aF1.546246872712832
aF1.5399079218525564
aF1.5336096255418141
aF1.5273516301673846
aF1.5211335859915214
aF1.5149551471009104
aF1.5088159713563638
aF1.502715720342895
aF1.4966540593212465
aF1.4906306571794017
aF1.484645186385741
aF1.4786973229418512
aF1.4727867463368252
aF1.466913139502251
aF1.4610761887672643
aF1.4552755838150737
aF1.4495110176394093
aF1.443782186502247
aF1.4380887898915895
aF1.4324305304806098
aF1.4268071140862417
aF1.421218249630275
aF1.4156636490986612
aF1.4101430275033584
aF1.4046561028437603
aF1.3992025960692602
aF1.3937822310414911
aF1.3883947344984058
aF1.383039836017664
aF1.377717267981153
aF1.372426765540191
aF1.367168066580821
aF1.3619409116896357
aF1.356745044120428
aF1.351580209761229
aF1.3464461571015618
aF1.3413426372003783
aF1.3362694036544418
aF1.3312262125672827
aF1.3262128225182173
aF1.3212289945321232
aF1.3162744920499183
aF1.3113490808985104
aF1.3064525292623146
aF1.301584607654552
aF1.2967450888887775
aF1.2919337480512614
aF1.287150362473898
aF1.2823947117065286
aF1.2776665774910199
aF1.2729657437342965
aF1.2682919964830532
aF1.263645123897925
aF1.2590249162283884
aF1.254431165787769
aF1.2498636669290861
aF1.2453222160204995
aF1.2408066114219614
aF1.236316653461473
aF1.2318521444118302
aF1.227412888467995
aF1.2229986917244846
aF1.2186093621533431
aF1.2142447095818385
aF1.2099045456711242
aF1.205588683894913
aF1.2012969395184856
aF1.1970291295777487
aF1.1927850728589422
aF1.188564589878475
aF1.1843675028628664
aF1.1801936357293594
aF1.176042814066009
assssssag1
(g2
tp49
Rp50
g5
g1
(g2
tp51
Rp52
I500
g1
(g2
tp53
Rp54
I80000
g1
(g2
tp55
Rp56
I8
g1
(g2
tp57
Rp58
I30
g1
(g2
tp59
Rp60
I1
(lp61
F0.005174134857952595
aF0.019459407776594162
aF0.03341439366340637
aF0.04857326298952103
aF0.06319336593151093
aF0.07771075516939163
aF0.09308992326259613
aF0.10842175036668777
aF0.12292729318141937
aF0.13822248578071594
aF0.15135614573955536
aF0.16506953537464142
aF0.17987337708473206
aF0.19371885061264038
aF0.20999792218208313
aF0.22512555122375488
aF0.2383316159248352
aF0.2545570135116577
aF0.2673265337944031
aF0.2813555598258972
aF0.2962562143802643
aF0.3097345530986786
aF0.3249300718307495
aF0.34021249413490295
aF0.35428157448768616
aF0.3703113794326782
aF0.38493531942367554
aF0.3982001543045044
aF0.41407495737075806
aF0.42695075273513794
aF0.44081875681877136
aF0.4558908939361572
aF0.4695499837398529
aF0.48561590909957886
aF0.5023037195205688
aF0.5176197290420532
aF0.5327590703964233
aF0.5487070679664612
aF0.5634045600891113
aF0.5773495435714722
aF0.5939099788665771
aF0.6086312532424927
aF0.6219156384468079
aF0.6381231546401978
aF0.6527765989303589
aF0.6660903096199036
aF0.6814894676208496
aF0.6964132189750671
aF0.7107117772102356
aF0.7269487380981445
aF0.7398117780685425
aF0.7539654970169067
aF0.7692521810531616
aF0.7826363444328308
aF0.7982069253921509
aF0.8129847645759583
aF0.8268582820892334
aF0.8422236442565918
aF0.8552343845367432
aF0.8690269589424133
aF0.88397216796875
aF0.898158073425293
aF0.9146877527236938
aF0.9304829239845276
aF0.9439280033111572
aF0.9577194452285767
aF0.9722527265548706
aF0.9867264032363892
aF1.0021624565124512
aF1.0153295993804932
aF1.0294032096862793
aF1.0444202423095703
aF1.0582698583602905
aF1.0741243362426758
aF1.0870766639709473
aF1.1012059450149536
aF1.1163346767425537
aF1.1298606395721436
aF1.1458191871643066
aF1.1612157821655273
aF1.1749451160430908
aF1.1904255151748657
aF1.2052040100097656
aF1.21909761428833
aF1.2346827983856201
aF1.2477375268936157
aF1.2615034580230713
aF1.2766669988632202
aF1.2904249429702759
aF1.3061994314193726
aF1.3204737901687622
aF1.3345427513122559
aF1.3497536182403564
aF1.3627980947494507
aF1.3763556480407715
aF1.3915691375732422
aF1.405501365661621
aF1.4216653108596802
aF1.4363303184509277
aF1.4497175216674805
aF1.465509057044983
aF1.4783623218536377
aF1.4924027919769287
aF1.5076639652252197
aF1.5213677883148193
aF1.536828875541687
aF1.5512897968292236
aF1.565436601638794
aF1.580617070198059
aF1.5936521291732788
aF1.607392430305481
aF1.621781349182129
aF1.6358897686004639
aF1.6510896682739258
aF1.6663199663162231
aF1.680694818496704
aF1.696476936340332
aF1.709470272064209
aF1.7233164310455322
aF1.7387499809265137
aF1.7522587776184082
aF1.767753005027771
aF1.7824342250823975
aF1.7964608669281006
aF1.8115229606628418
aF1.8264455795288086
aF1.840639591217041
aF1.8560007810592651
aF1.8690129518508911
aF1.8826696872711182
aF1.8976225852966309
aF1.9119030237197876
aF1.9279155731201172
aF1.9427722692489624
aF1.9562779664993286
aF1.972116470336914
aF1.9851926565170288
aF1.998899221420288
aF2.0143685340881348
aF2.0280137062072754
aF2.044069290161133
aF2.0596251487731934
aF2.07326602935791
aF2.0885863304138184
aF2.102944850921631
aF2.1170814037323
aF2.1324827671051025
aF2.145689010620117
aF2.1595897674560547
aF2.174297332763672
aF2.1881446838378906
aF2.204092025756836
aF2.2171406745910645
aF2.231139898300171
aF2.2464330196380615
aF2.2599782943725586
aF2.2753145694732666
aF2.28987717628479
aF2.3039488792419434
aF2.3192527294158936
aF2.3322410583496094
aF2.3460075855255127
aF2.3608198165893555
aF2.374662399291992
aF2.3905818462371826
aF2.4055628776550293
aF2.4189844131469727
aF2.4351465702056885
aF2.4500479698181152
aF2.463223695755005
aF2.479175090789795
aF2.494253158569336
aF2.5076839923858643
aF2.524064540863037
aF2.539156436920166
aF2.5523416996002197
aF2.5682103633880615
aF2.581127882003784
aF2.5950746536254883
aF2.6102168560028076
aF2.623756170272827
aF2.639434337615967
aF2.6541261672973633
aF2.6674327850341797
aF2.6829113960266113
aF2.695817470550537
aF2.7093582153320312
aF2.7237462997436523
aF2.7379977703094482
aF2.753999948501587
aF2.766826629638672
aF2.7807745933532715
aF2.796135425567627
aF2.8097848892211914
aF2.824004650115967
aF2.8388781547546387
aF2.8531363010406494
aF2.8684165477752686
aF2.8814687728881836
aF2.8953537940979004
aF2.9103095531463623
aF2.9243152141571045
aF2.9424407482147217
aF2.960669755935669
aF2.9789328575134277
aF2.9944427013397217
aF3.0086770057678223
aF3.023118019104004
aF3.038092613220215
aF3.052006721496582
aF3.067605972290039
aF3.082801342010498
aF3.0969600677490234
aF3.113107204437256
aF3.1260881423950195
aF3.1398391723632812
aF3.154865264892578
aF3.16867733001709
aF3.183899402618408
aF3.198582887649536
aF3.2127652168273926
aF3.2280936241149902
aF3.2431681156158447
aF3.257206916809082
aF3.2726590633392334
aF3.2855148315429688
aF3.299471855163574
aF3.3146910667419434
aF3.3282222747802734
aF3.34354305267334
aF3.3583943843841553
aF3.3726415634155273
aF3.3881707191467285
aF3.4028210639953613
aF3.4173192977905273
aF3.4325385093688965
aF3.4458398818969727
aF3.459582805633545
aF3.473642349243164
aF3.487915277481079
aF3.503297805786133
aF3.5165228843688965
aF3.530272960662842
aF3.545004367828369
aF3.5588221549987793
aF3.5750184059143066
aF3.587996006011963
aF3.601874351501465
aF3.6168019771575928
aF3.6302380561828613
aF3.645395278930664
aF3.659524917602539
aF3.674651622772217
aF3.6911935806274414
aF3.704041004180908
aF3.7179975509643555
aF3.732942581176758
aF3.74658465385437
aF3.761913299560547
aF3.77673077583313
aF3.7905995845794678
aF3.806528091430664
aF3.8195228576660156
aF3.8334293365478516
aF3.848557472229004
aF3.862133502960205
aF3.877991199493408
aF3.8927457332611084
aF3.906029224395752
aF3.921865224838257
aF3.9349894523620605
aF3.948892116546631
aF3.963465452194214
aF3.9770498275756836
aF3.9930925369262695
aF4.0081706047058105
aF4.021549224853516
aF4.036832809448242
aF4.051834583282471
aF4.065924644470215
aF4.081517219543457
aF4.094527244567871
aF4.108410358428955
aF4.122835636138916
aF4.137333869934082
aF4.1538004875183105
aF4.168920516967773
aF4.182591915130615
aF4.1984052658081055
aF4.211267471313477
aF4.225250244140625
aF4.240032196044922
aF4.253483295440674
aF4.2687296867370605
aF4.283117294311523
aF4.297535419464111
aF4.313596248626709
aF4.326458930969238
aF4.340325355529785
aF4.355226993560791
aF4.368899345397949
aF4.384133815765381
aF4.39918327331543
aF4.413279056549072
aF4.4288787841796875
aF4.442154884338379
aF4.455918312072754
aF4.4709882736206055
aF4.484722137451172
aF4.501030921936035
aF4.5167622566223145
aF4.530734539031982
aF4.545055866241455
aF4.559903144836426
aF4.575216770172119
aF4.593920707702637
aF4.609121322631836
aF4.624304294586182
aF4.637834072113037
aF4.653128147125244
aF4.6694231033325195
aF4.68297004699707
aF4.697276592254639
aF4.712978363037109
aF4.726704120635986
aF4.741997718811035
aF4.757280349731445
aF4.771178245544434
aF4.787444114685059
aF4.802244186401367
aF4.815422534942627
aF4.831010818481445
aF4.844184875488281
aF4.858135223388672
aF4.873518943786621
aF4.887405872344971
aF4.90095329284668
aF4.914701461791992
aF4.927892208099365
aF4.941955089569092
aF4.955155372619629
aF4.968252658843994
aF4.98291015625
aF4.996157646179199
aF5.009997367858887
aF5.023495674133301
aF5.036862373352051
aF5.051226615905762
aF5.064462661743164
aF5.07822847366333
aF5.091700553894043
aF5.104496955871582
aF5.1192121505737305
aF5.132789611816406
aF5.1460957527160645
aF5.160789966583252
aF5.173590660095215
aF5.188424587249756
aF5.202089309692383
aF5.2151336669921875
aF5.229805946350098
aF5.243194580078125
aF5.256918907165527
aF5.270554065704346
aF5.283971786499023
aF5.298421382904053
aF5.3114471435546875
aF5.326015949249268
aF5.339630126953125
aF5.352461814880371
aF5.367137432098389
aF5.384837627410889
aF5.402006149291992
aF5.416622638702393
aF5.431427478790283
aF5.444870948791504
aF5.459079742431641
aF5.472087383270264
aF5.485574245452881
aF5.499274253845215
aF5.51206636428833
aF5.526765823364258
aF5.54014253616333
aF5.553212642669678
aF5.567898750305176
aF5.581587791442871
aF5.595641136169434
aF5.609316825866699
aF5.622220993041992
aF5.637147903442383
aF5.650589466094971
aF5.664451599121094
aF5.678016662597656
aF5.690816879272461
aF5.705000877380371
aF5.718561172485352
aF5.731729507446289
aF5.746331691741943
aF5.759521484375
aF5.772809982299805
aF5.78633451461792
aF5.799108982086182
aF5.8134894371032715
aF5.826847553253174
aF5.839858055114746
aF5.854099273681641
aF5.867222785949707
aF5.88062858581543
aF5.894205093383789
aF5.907167911529541
aF5.92118501663208
aF5.9347686767578125
aF5.947771072387695
aF5.962201118469238
aF5.975507736206055
aF5.989093780517578
aF6.0029520988464355
aF6.016034126281738
aF6.030722141265869
aF6.044130325317383
aF6.057463645935059
aF6.071700096130371
aF6.084765434265137
aF6.098340034484863
aF6.1118621826171875
aF6.124728679656982
aF6.139230728149414
aF6.153133392333984
aF6.16722297668457
aF6.181188583374023
aF6.193832874298096
aF6.2083001136779785
aF6.221876621246338
aF6.234518527984619
aF6.25161600112915
aF6.264830589294434
aF6.279270172119141
aF6.2920379638671875
aF6.306899547576904
aF6.320371627807617
aF6.333230018615723
aF6.347996711730957
aF6.361237525939941
aF6.374505996704102
aF6.388702392578125
aF6.402011394500732
aF6.416932582855225
aF6.430551528930664
aF6.443889617919922
aF6.458273410797119
aF6.471562385559082
aF6.48480749130249
aF6.498496055603027
aF6.511468887329102
aF6.525778770446777
aF6.539223670959473
aF6.552575588226318
aF6.566745281219482
aF6.579923629760742
aF6.593404293060303
aF6.606971263885498
aF6.619823455810547
aF6.634302616119385
aF6.6479034423828125
aF6.661145210266113
aF6.675524711608887
aF6.68852424621582
aF6.702250957489014
aF6.715727806091309
aF6.728775978088379
aF6.742949962615967
aF6.756318092346191
aF6.769745826721191
aF6.7839484214782715
aF6.797006607055664
aF6.81182861328125
aF6.825444221496582
aF6.838354587554932
aF6.853131294250488
aF6.86683464050293
aF6.880579948425293
aF6.894312858581543
aF6.907341957092285
aF6.921721458435059
aF6.9350361824035645
aF6.948338508605957
aF6.962810039520264
aF6.975947380065918
aF6.9907684326171875
aF7.004214286804199
aF7.017584800720215
aF7.031754016876221
aF7.044898986816406
aF7.05826997756958
aF7.071900367736816
aF7.084850311279297
aF7.099041938781738
aF7.112517356872559
aF7.125770568847656
aF7.140015602111816
asssI1
g1
(g2
tp62
Rp63
I30
g1
(g2
tp64
Rp65
I1
(lp66
F0.004772768821567297
aF0.05895116180181503
aF0.1138867437839508
aF0.1685967892408371
aF0.2221735119819641
aF0.2772557735443115
aF0.3311086893081665
aF0.38593369722366333
aF0.44023722410202026
aF0.49394500255584717
aF0.5486542582511902
aF0.6025063991546631
aF0.6575304269790649
aF0.711155116558075
aF0.7659604549407959
aF0.8206318020820618
aF0.8744507431983948
aF0.929071843624115
aF0.9826175570487976
aF1.0371336936950684
aF1.0925965309143066
aF1.1465924978256226
aF1.2011325359344482
aF1.255167007446289
aF1.3089947700500488
aF1.3625147342681885
aF1.4161574840545654
aF1.4707525968551636
aF1.5244702100753784
aF1.5781967639923096
aF1.6337703466415405
aF1.687203288078308
aF1.7406920194625854
aF1.7957119941711426
aF1.8493754863739014
aF1.902887225151062
aF1.957366943359375
aF2.0111937522888184
aF2.0656332969665527
aF2.1197080612182617
aF2.17329478263855
aF2.227020263671875
aF2.2809410095214844
aF2.3345351219177246
aF2.3882663249969482
aF2.4417665004730225
aF2.4963459968566895
aF2.549870014190674
aF2.603404998779297
aF2.656991958618164
aF2.710718870162964
aF2.7681102752685547
aF2.8220083713531494
aF2.8758676052093506
aF2.9296231269836426
aF2.9832053184509277
aF3.0381455421447754
aF3.0918288230895996
aF3.145761728286743
aF3.1995596885681152
aF3.253455400466919
aF3.3081586360931396
aF3.3618671894073486
aF3.4155473709106445
aF3.4692907333374023
aF3.523007392883301
aF3.5951380729675293
aF3.6491615772247314
aF3.70287823677063
aF3.756885528564453
aF3.8105461597442627
aF3.865631103515625
aF3.9199416637420654
aF3.9736974239349365
aF4.0274224281311035
aF4.081174850463867
aF4.134988307952881
aF4.188687801361084
aF4.242368698120117
aF4.2959136962890625
aF4.349560737609863
aF4.403752326965332
aF4.457475185394287
aF4.511251449584961
aF4.56588077545166
aF4.619678020477295
aF4.673672676086426
aF4.727454662322998
aF4.781030654907227
aF4.835177898406982
aF4.889349937438965
aF4.9432549476623535
aF4.997080326080322
aF5.055427074432373
aF5.1093268394470215
aF5.163040637969971
aF5.217014312744141
aF5.270840167999268
aF5.324524879455566
aF5.378316402435303
aF5.431832313537598
aF5.486438274383545
aF5.540250778198242
aF5.59430456161499
aF5.648092269897461
aF5.701833724975586
aF5.7555928230285645
aF5.809667587280273
aF5.864129543304443
aF5.919004440307617
aF5.972837448120117
aF6.026697158813477
aF6.080893516540527
aF6.134604454040527
aF6.188198566436768
aF6.241912364959717
aF6.295475006103516
aF6.349144458770752
aF6.4038286209106445
aF6.4575676918029785
aF6.511449813842773
aF6.565188884735107
aF6.6190032958984375
aF6.672947883605957
aF6.726786136627197
aF6.780404090881348
aF6.835427284240723
aF6.889446258544922
aF6.9433746337890625
aF6.997290134429932
aF7.051041126251221
aF7.104628562927246
aF7.158142566680908
aF7.211955547332764
aF7.265605449676514
aF7.320234775543213
aF7.373901844024658
aF7.427703857421875
aF7.481707572937012
aF7.5355329513549805
aF7.589447021484375
aF7.643135070800781
aF7.696915149688721
aF7.75171422958374
aF7.80586576461792
aF7.860075950622559
aF7.913905620574951
aF7.96769905090332
aF8.021366119384766
aF8.074982643127441
aF8.128622055053711
aF8.196183204650879
aF8.250462532043457
aF8.304295539855957
aF8.359018325805664
aF8.412870407104492
aF8.46654224395752
aF8.52025318145752
aF8.574081420898438
aF8.627764701843262
aF8.682770729064941
aF8.736599922180176
aF8.79047679901123
aF8.844656944274902
aF8.898369789123535
aF8.952162742614746
aF9.006022453308105
aF9.059771537780762
aF9.11349868774414
aF9.167272567749023
aF9.220941543579102
aF9.274758338928223
aF9.328619956970215
aF9.382142066955566
aF9.435870170593262
aF9.489473342895508
aF9.543135643005371
aF9.5968017578125
aF9.650514602661133
aF9.704264640808105
aF9.758012771606445
aF9.81218147277832
aF9.866240501403809
aF9.920233726501465
aF9.974085807800293
aF10.02775764465332
aF10.081413269042969
aF10.135130882263184
aF10.189106941223145
aF10.242962837219238
aF10.296547889709473
aF10.350123405456543
aF10.403791427612305
aF10.45753288269043
aF10.511354446411133
aF10.565019607543945
aF10.618584632873535
aF10.680493354797363
aF10.734149932861328
aF10.788480758666992
aF10.842357635498047
aF10.896224021911621
aF10.950016975402832
aF11.003803253173828
aF11.057535171508789
aF11.111499786376953
aF11.165473937988281
aF11.219141960144043
aF11.272926330566406
aF11.32656192779541
aF11.38025951385498
aF11.434816360473633
aF11.488358497619629
aF11.541923522949219
aF11.59558391571045
aF11.649371147155762
aF11.703041076660156
aF11.757048606872559
aF11.811006546020508
aF11.864791870117188
aF11.918627738952637
aF11.972368240356445
aF12.026116371154785
aF12.079906463623047
aF12.133630752563477
aF12.187408447265625
aF12.242247581481934
aF12.29601764678955
aF12.349615097045898
aF12.403501510620117
aF12.45719051361084
aF12.5109281539917
aF12.564691543579102
aF12.618448257446289
aF12.672386169433594
aF12.726309776306152
aF12.780719757080078
aF12.834493637084961
aF12.88826847076416
aF12.942150115966797
aF12.997182846069336
aF13.051019668579102
aF13.104740142822266
aF13.158378601074219
aF13.212139129638672
aF13.26577091217041
aF13.319428443908691
aF13.373043060302734
aF13.42690372467041
aF13.480720520019531
aF13.534327507019043
aF13.587992668151855
aF13.641740798950195
aF13.695691108703613
aF13.750097274780273
aF13.804884910583496
aF13.858564376831055
aF13.91249942779541
aF13.966339111328125
aF14.020130157470703
aF14.073762893676758
aF14.12745189666748
aF14.181020736694336
aF14.234762191772461
aF14.288470268249512
aF14.342276573181152
aF14.395902633666992
aF14.449737548828125
aF14.50361442565918
aF14.55832290649414
aF14.612154006958008
aF14.66585636138916
aF14.720183372497559
aF14.774139404296875
aF14.828014373779297
aF14.881662368774414
aF14.935197830200195
aF14.988921165466309
aF15.042440414428711
aF15.096006393432617
aF15.149675369262695
aF15.203426361083984
aF15.257099151611328
aF15.311139106750488
aF15.365819931030273
aF15.419485092163086
aF15.473298072814941
aF15.527074813842773
aF15.580720901489258
aF15.634527206420898
aF15.688760757446289
aF15.74301528930664
aF15.796730995178223
aF15.850448608398438
aF15.904111862182617
aF15.957782745361328
aF16.011594772338867
aF16.06538200378418
aF16.1199893951416
aF16.173564910888672
aF16.227537155151367
aF16.281442642211914
aF16.335405349731445
aF16.389266967773438
aF16.443138122558594
aF16.496999740600586
aF16.550872802734375
aF16.604446411132812
aF16.65853500366211
aF16.71255111694336
aF16.766124725341797
aF16.81977081298828
aF16.873350143432617
aF16.92734718322754
aF16.98127555847168
aF17.034931182861328
aF17.088600158691406
aF17.142288208007812
aF17.197446823120117
aF17.252277374267578
aF17.30600357055664
aF17.359886169433594
aF17.415205001831055
aF17.47217559814453
aF17.525894165039062
aF17.580110549926758
aF17.636077880859375
aF17.69093132019043
aF17.74468231201172
aF17.79853630065918
aF17.852214813232422
aF17.905895233154297
aF17.959686279296875
aF18.013416290283203
aF18.067235946655273
aF18.12078285217285
aF18.174495697021484
aF18.228164672851562
aF18.28191375732422
aF18.33563232421875
aF18.38998031616211
aF18.449342727661133
aF18.509611129760742
aF18.570371627807617
aF18.62755584716797
aF18.690826416015625
aF18.74908447265625
aF18.80306053161621
aF18.857080459594727
aF18.910812377929688
aF18.964717864990234
aF19.018634796142578
aF19.072540283203125
aF19.126277923583984
aF19.179872512817383
aF19.234830856323242
aF19.288578033447266
aF19.342403411865234
aF19.396684646606445
aF19.450759887695312
aF19.504539489746094
aF19.558835983276367
aF19.613819122314453
aF19.66873550415039
aF19.724706649780273
aF19.778642654418945
aF19.832508087158203
aF19.886367797851562
aF19.940444946289062
aF19.994430541992188
aF20.048526763916016
aF20.10232925415039
aF20.156091690063477
aF20.209796905517578
aF20.26361083984375
aF20.317350387573242
aF20.3710994720459
aF20.424739837646484
aF20.478425979614258
aF20.531946182250977
aF20.58602523803711
aF20.6400146484375
aF20.69377899169922
aF20.747648239135742
aF20.802377700805664
aF20.85629653930664
aF20.909992218017578
aF20.963754653930664
aF21.017457962036133
aF21.071247100830078
aF21.124937057495117
aF21.178497314453125
aF21.23221778869629
aF21.2861270904541
aF21.339799880981445
aF21.393390655517578
aF21.44711685180664
aF21.50088882446289
aF21.55573272705078
aF21.60991859436035
aF21.663761138916016
aF21.717552185058594
aF21.771509170532227
aF21.825244903564453
aF21.87884521484375
aF21.93248748779297
aF21.986114501953125
aF22.039936065673828
aF22.093589782714844
aF22.14722442626953
aF22.20113182067871
aF22.254741668701172
aF22.308359146118164
aF22.36297607421875
aF22.416637420654297
aF22.470285415649414
aF22.524070739746094
aF22.57822036743164
aF22.632020950317383
aF22.685819625854492
aF22.739526748657227
aF22.79328155517578
aF22.846912384033203
aF22.900493621826172
aF22.954097747802734
aF23.007831573486328
aF23.06143569946289
aF23.115846633911133
aF23.169660568237305
aF23.22332000732422
aF23.277164459228516
aF23.331029891967773
aF23.38491439819336
aF23.438701629638672
aF23.492713928222656
aF23.547048568725586
aF23.600940704345703
aF23.654741287231445
aF23.70916748046875
aF23.76313591003418
aF23.816986083984375
aF23.87075424194336
aF23.925405502319336
aF23.978923797607422
aF24.032611846923828
aF24.08661651611328
aF24.14031982421875
aF24.19393539428711
aF24.247594833374023
aF24.301376342773438
aF24.355180740356445
aF24.40899658203125
aF24.462570190429688
aF24.51694107055664
aF24.571290969848633
aF24.624954223632812
aF24.679534912109375
aF24.73320960998535
aF24.786901473999023
aF24.840652465820312
aF24.894668579101562
aF24.94852638244629
aF25.006546020507812
aF25.060447692871094
aF25.114723205566406
aF25.168476104736328
aF25.222278594970703
aF25.276147842407227
aF25.32996940612793
aF25.384767532348633
aF25.440540313720703
aF25.498306274414062
aF25.55324363708496
aF25.607789993286133
aF25.66172981262207
aF25.715848922729492
aF25.771507263183594
aF25.825490951538086
aF25.879934310913086
aF25.934463500976562
aF25.987930297851562
aF26.041379928588867
aF26.09483528137207
aF26.14827537536621
aF26.201717376708984
aF26.256128311157227
aF26.309459686279297
aF26.36302947998047
aF26.416412353515625
aF26.472898483276367
aF26.527145385742188
aF26.580669403076172
aF26.634347915649414
aF26.688003540039062
aF26.741588592529297
aF26.795181274414062
aF26.849140167236328
aF26.903133392333984
aF26.956636428833008
aF27.011058807373047
asssI4
g1
(g2
tp67
Rp68
I30
g1
(g2
tp69
Rp70
I1
(lp71
F0.0048738811165094376
aF0.027985652908682823
aF0.052429672330617905
aF0.0757683664560318
aF0.10059533268213272
aF0.12401632964611053
aF0.14706890285015106
aF0.17243045568466187
aF0.19604350626468658
aF0.22149765491485596
aF0.24586041271686554
aF0.27081483602523804
aF0.2951953411102295
aF0.3192495107650757
aF0.3433857560157776
aF0.36684662103652954
aF0.3913039267063141
aF0.414697527885437
aF0.4375646412372589
aF0.46242597699165344
aF0.4860761761665344
aF0.5103945732116699
aF0.5359408855438232
aF0.5600019097328186
aF0.5858761072158813
aF0.6097210645675659
aF0.6352887153625488
aF0.6586918830871582
aF0.6833178997039795
aF0.7071607112884521
aF0.730621874332428
aF0.7558770179748535
aF0.77956223487854
aF0.8051589727401733
aF0.8286876082420349
aF0.8538601398468018
aF0.877727210521698
aF0.9009004831314087
aF0.925611138343811
aF0.9490318298339844
aF0.974139928817749
aF0.9983553290367126
aF1.0217609405517578
aF1.0471608638763428
aF1.070371389389038
aF1.0958384275436401
aF1.1194831132888794
aF1.145078182220459
aF1.1688389778137207
aF1.1940416097640991
aF1.2179231643676758
aF1.2413263320922852
aF1.2670111656188965
aF1.2904551029205322
aF1.3150224685668945
aF1.3391669988632202
aF1.3626477718353271
aF1.3879786729812622
aF1.4116863012313843
aF1.4367302656173706
aF1.4606190919876099
aF1.4857125282287598
aF1.5094728469848633
aF1.5325902700424194
aF1.5576255321502686
aF1.5809072256088257
aF1.605170726776123
aF1.6307809352874756
aF1.654846429824829
aF1.6808305978775024
aF1.7047395706176758
aF1.730802297592163
aF1.7547965049743652
aF1.7806795835494995
aF1.8042813539505005
aF1.829481840133667
aF1.8529653549194336
aF1.8767919540405273
aF1.9013888835906982
aF1.9247838258743286
aF1.9491658210754395
aF1.9731605052947998
aF1.99627685546875
aF2.021144151687622
aF2.0447030067443848
aF2.069202184677124
aF2.093163013458252
aF2.1167755126953125
aF2.1419339179992676
aF2.165342330932617
aF2.1910176277160645
aF2.214742660522461
aF2.2395267486572266
aF2.263350248336792
aF2.2864646911621094
aF2.3115882873535156
aF2.3351898193359375
aF2.360276699066162
aF2.384216070175171
aF2.407249927520752
aF2.43198561668396
aF2.4553894996643066
aF2.480506181716919
aF2.503854990005493
aF2.527771234512329
aF2.5536975860595703
aF2.577850580215454
aF2.6038196086883545
aF2.627474308013916
aF2.652567148208618
aF2.6762795448303223
aF2.7012338638305664
aF2.7247188091278076
aF2.747657537460327
aF2.772793769836426
aF2.7963602542877197
aF2.8209853172302246
aF2.8460962772369385
aF2.8702850341796875
aF2.895711898803711
aF2.91927170753479
aF2.944613218307495
aF2.9681193828582764
aF2.9933018684387207
aF3.017565965652466
aF3.0409910678863525
aF3.066424608230591
aF3.089740514755249
aF3.1147568225860596
aF3.138099193572998
aF3.1614491939544678
aF3.1870107650756836
aF3.210705518722534
aF3.2361791133880615
aF3.259864330291748
aF3.285491704940796
aF3.309391498565674
aF3.3328969478607178
aF3.358112096786499
aF3.3815841674804688
aF3.4073705673217773
aF3.4313108921051025
aF3.4566152095794678
aF3.480915069580078
aF3.5038323402404785
aF3.5285706520080566
aF3.5520811080932617
aF3.5773797035217285
aF3.6010541915893555
aF3.6251797676086426
aF3.650052070617676
aF3.673978805541992
aF3.6997106075286865
aF3.7234630584716797
aF3.749009609222412
aF3.7728545665740967
aF3.7983458042144775
aF3.8223626613616943
aF3.8468618392944336
aF3.8725123405456543
aF3.8961520195007324
aF3.9220385551452637
aF3.946032762527466
aF3.972053289413452
aF3.995643138885498
aF4.020998001098633
aF4.044731140136719
aF4.069849014282227
aF4.094015598297119
aF4.118589878082275
aF4.144042015075684
aF4.167431354522705
aF4.193148136138916
aF4.216919422149658
aF4.241971969604492
aF4.265958786010742
aF4.289259910583496
aF4.314875602722168
aF4.338083744049072
aF4.363378524780273
aF4.387085437774658
aF4.411223888397217
aF4.436395645141602
aF4.460170269012451
aF4.4857497215271
aF4.509224891662598
aF4.534284591674805
aF4.558229923248291
aF4.583292007446289
aF4.606933116912842
aF4.630824089050293
aF4.65653133392334
aF4.680308818817139
aF4.705419540405273
aF4.7289910316467285
aF4.7524590492248535
aF4.778069496154785
aF4.80231237411499
aF4.827693939208984
aF4.851190090179443
aF4.87604284286499
aF4.90020751953125
aF4.9237961769104
aF4.949293613433838
aF4.973398685455322
aF4.999414443969727
aF5.023938179016113
aF5.048353672027588
aF5.0712456703186035
aF5.095993995666504
aF5.1194353103637695
aF5.1432366371154785
aF5.1685686111450195
aF5.192243576049805
aF5.217244625091553
aF5.240818023681641
aF5.265468120574951
aF5.290915489196777
aF5.31514310836792
aF5.340733528137207
aF5.36466121673584
aF5.390673637390137
aF5.414334297180176
aF5.4396820068359375
aF5.463050842285156
aF5.487202167510986
aF5.512895584106445
aF5.536974906921387
aF5.562849521636963
aF5.586547374725342
aF5.612050533294678
aF5.635676383972168
aF5.660581588745117
aF5.684549331665039
aF5.707942008972168
aF5.733071804046631
aF5.75648832321167
aF5.781976699829102
aF5.8055009841918945
aF5.829501152038574
aF5.855160713195801
aF5.879170894622803
aF5.904914855957031
aF5.9284868240356445
aF5.95380163192749
aF5.97804594039917
aF6.002566337585449
aF6.026162624359131
aF6.048955917358398
aF6.07374906539917
aF6.097141742706299
aF6.122508525848389
aF6.146849632263184
aF6.170924663543701
aF6.19608211517334
aF6.220239162445068
aF6.246284008026123
aF6.270880222320557
aF6.296477317810059
aF6.320354461669922
aF6.346463680267334
aF6.369948387145996
aF6.394724369049072
aF6.418544769287109
aF6.441918849945068
aF6.467381954193115
aF6.490979194641113
aF6.516166687011719
aF6.5398736000061035
aF6.563930511474609
aF6.589047431945801
aF6.613182067871094
aF6.638894557952881
aF6.662796974182129
aF6.688543319702148
aF6.7118096351623535
aF6.73743200302124
aF6.761247158050537
aF6.786998748779297
aF6.8109941482543945
aF6.835789680480957
aF6.859622001647949
aF6.882403373718262
aF6.9073710441589355
aF6.931187629699707
aF6.95594596862793
aF6.979949474334717
aF7.0034637451171875
aF7.0288405418396
aF7.052118301391602
aF7.076885223388672
aF7.1004486083984375
aF7.124017238616943
aF7.149360179901123
aF7.173198699951172
aF7.1990790367126465
aF7.22299861907959
aF7.248807430267334
aF7.272492408752441
aF7.297610282897949
aF7.321673393249512
aF7.346942901611328
aF7.370287895202637
aF7.393932819366455
aF7.419261932373047
aF7.442727088928223
aF7.468316078186035
aF7.4919633865356445
aF7.516009330749512
aF7.54135799407959
aF7.565267562866211
aF7.5912861824035645
aF7.615616798400879
aF7.641534805297852
aF7.666609764099121
aF7.691284656524658
aF7.714669227600098
aF7.740220069885254
aF7.7636895179748535
aF7.788378715515137
aF7.812587738037109
aF7.835689544677734
aF7.860328674316406
aF7.883678913116455
aF7.908491134643555
aF7.931942939758301
aF7.9556074142456055
aF7.9810590744018555
aF8.004596710205078
aF8.029888153076172
aF8.053930282592773
aF8.079058647155762
aF8.1027250289917
aF8.125823974609375
aF8.150568008422852
aF8.173707008361816
aF8.196165084838867
aF8.219165802001953
aF8.242603302001953
aF8.265815734863281
aF8.289061546325684
aF8.312024116516113
aF8.334537506103516
aF8.356704711914062
aF8.379413604736328
aF8.402687072753906
aF8.425800323486328
aF8.448553085327148
aF8.471614837646484
aF8.494035720825195
aF8.516562461853027
aF8.539051055908203
aF8.562601089477539
aF8.586289405822754
aF8.609723091125488
aF8.632673263549805
aF8.655341148376465
aF8.677919387817383
aF8.700431823730469
aF8.723579406738281
aF8.74697208404541
aF8.770432472229004
aF8.793503761291504
aF8.816203117370605
aF8.838730812072754
aF8.861425399780273
aF8.884671211242676
aF8.907862663269043
aF8.931361198425293
aF8.954402923583984
aF8.9765043258667
aF8.999052047729492
aF9.021369934082031
aF9.043951034545898
aF9.067017555236816
aF9.090023040771484
aF9.113073348999023
aF9.136835098266602
aF9.159690856933594
aF9.182232856750488
aF9.20530891418457
aF9.228620529174805
aF9.251622200012207
aF9.27432918548584
aF9.297322273254395
aF9.320259094238281
aF9.342767715454102
aF9.365365028381348
aF9.388406753540039
aF9.411123275756836
aF9.434091567993164
aF9.457219123840332
aF9.479510307312012
aF9.501867294311523
aF9.524688720703125
aF9.547037124633789
aF9.569653511047363
aF9.592696189880371
aF9.615800857543945
aF9.639052391052246
aF9.661251068115234
aF9.683378219604492
aF9.706047058105469
aF9.728562355041504
aF9.751486778259277
aF9.774986267089844
aF9.798473358154297
aF9.821685791015625
aF9.844647407531738
aF9.867385864257812
aF9.89099407196045
aF9.914212226867676
aF9.937440872192383
aF9.960506439208984
aF9.98293399810791
aF10.00551986694336
aF10.028104782104492
aF10.051301002502441
aF10.074437141418457
aF10.097983360290527
aF10.121164321899414
aF10.14324951171875
aF10.165840148925781
aF10.188414573669434
aF10.211630821228027
aF10.23442554473877
aF10.25743579864502
aF10.280489921569824
aF10.303594589233398
aF10.32651424407959
aF10.348711013793945
aF10.371530532836914
aF10.39455795288086
aF10.417641639709473
aF10.44085693359375
aF10.463651657104492
aF10.486442565917969
aF10.508819580078125
aF10.531389236450195
aF10.554533004760742
aF10.577369689941406
aF10.600424766540527
aF10.62366771697998
aF10.646749496459961
aF10.66895866394043
aF10.691434860229492
aF10.714052200317383
aF10.73697280883789
aF10.760154724121094
aF10.783048629760742
aF10.806180953979492
aF10.828635215759277
aF10.851202011108398
aF10.873847961425781
aF10.896711349487305
aF10.92028522491455
aF10.943704605102539
aF10.966625213623047
aF10.9891996383667
aF11.011537551879883
aF11.034330368041992
aF11.056967735290527
aF11.07977294921875
aF11.102842330932617
aF11.12563705444336
aF11.148526191711426
aF11.171661376953125
aF11.193763732910156
aF11.216100692749023
aF11.238877296447754
aF11.262044906616211
aF11.285482406616211
aF11.309051513671875
aF11.332149505615234
aF11.354227066040039
aF11.376712799072266
aF11.399070739746094
aF11.421818733215332
aF11.44477367401123
aF11.467637062072754
aF11.490753173828125
aF11.513971328735352
aF11.537117958068848
aF11.559589385986328
aF11.582233428955078
aF11.605727195739746
aF11.62895679473877
aF11.651992797851562
aF11.674991607666016
aF11.697978019714355
aF11.720558166503906
aF11.743033409118652
aF11.766166687011719
aF11.789285659790039
aF11.812702178955078
aF11.835739135742188
aF11.858242988586426
aF11.880577087402344
aF11.903318405151367
aF11.926549911499023
assssssg27
g1
(g2
tp72
Rp73
I500
g1
(g2
tp74
Rp75
I80000
g1
(g2
tp76
Rp77
I8
g1
(g2
tp78
Rp79
I30
g1
(g2
tp80
Rp81
I1
(lp82
F0.09189125150442123
aF0.10712189972400665
aF0.11882009357213974
aF0.13064655661582947
aF0.14016273617744446
aF0.15340106189250946
aF0.1651800274848938
aF0.1760549545288086
aF0.1891811490058899
aF0.20066338777542114
aF0.21280428767204285
aF0.22477251291275024
aF0.23413337767124176
aF0.2471780776977539
aF0.2592833638191223
aF0.26894059777259827
aF0.281946063041687
aF0.29373475909233093
aF0.3043661117553711
aF0.31736236810684204
aF0.32866913080215454
aF0.34020406007766724
aF0.35316064953804016
aF0.36439818143844604
aF0.3772868514060974
aF0.3888895511627197
aF0.4000963270664215
aF0.41336554288864136
aF0.42469099164009094
aF0.4367789626121521
aF0.4499228000640869
aF0.4596959054470062
aF0.47287195920944214
aF0.4847976565361023
aF0.4959859848022461
aF0.5090293288230896
aF0.5204101204872131
aF0.5332583785057068
aF0.5447686910629272
aF0.5551711320877075
aF0.5681117177009583
aF0.579725444316864
aF0.5910625457763672
aF0.604005753993988
aF0.6158233880996704
aF0.6286842226982117
aF0.6402063369750977
aF0.6508492827415466
aF0.6637728810310364
aF0.6750388145446777
aF0.686259388923645
aF0.6992954611778259
aF0.7105939984321594
aF0.7225021123886108
aF0.7354189157485962
aF0.7452712059020996
aF0.7581934928894043
aF0.7697535157203674
aF0.7800344824790955
aF0.7930047512054443
aF0.8047892451286316
aF0.8160974979400635
aF0.8289756774902344
aF0.8402549028396606
aF0.8522782325744629
aF0.8649784326553345
aF0.8748438954353333
aF0.8878109455108643
aF0.8996879458427429
aF0.9101111888885498
aF0.9231281876564026
aF0.9344795942306519
aF0.9458019137382507
aF0.9613121747970581
aF0.9718633890151978
aF0.9846930503845215
aF0.9962924718856812
aF1.0088863372802734
aF1.0207479000091553
aF1.0310041904449463
aF1.0440587997436523
aF1.0554488897323608
aF1.0657297372817993
aF1.078682541847229
aF1.0900801420211792
aF1.1004948616027832
aF1.1133062839508057
aF1.1246237754821777
aF1.1356325149536133
aF1.1485660076141357
aF1.1599758863449097
aF1.1720168590545654
aF1.1848695278167725
aF1.194525957107544
aF1.2074718475341797
aF1.2191883325576782
aF1.229291558265686
aF1.2421989440917969
aF1.254036545753479
aF1.2651554346084595
aF1.278154730796814
aF1.2900521755218506
aF1.3026601076126099
aF1.3144490718841553
aF1.3256741762161255
aF1.338607907295227
aF1.3501436710357666
aF1.3620649576187134
aF1.374157428741455
aF1.3853135108947754
aF1.3985297679901123
aF1.409803867340088
aF1.4214645624160767
aF1.4343526363372803
aF1.4453916549682617
aF1.457344889640808
aF1.470291256904602
aF1.4799864292144775
aF1.4930224418640137
aF1.5045077800750732
aF1.5148212909698486
aF1.5277855396270752
aF1.5396528244018555
aF1.5510141849517822
aF1.5639476776123047
aF1.575002908706665
aF1.586878776550293
aF1.599853754043579
aF1.6096638441085815
aF1.622624397277832
aF1.6343715190887451
aF1.6450998783111572
aF1.6579878330230713
aF1.669304609298706
aF1.6800384521484375
aF1.69297194480896
aF1.704178810119629
aF1.7157824039459229
aF1.7286746501922607
aF1.7402760982513428
aF1.7528057098388672
aF1.764304518699646
aF1.7743072509765625
aF1.7872679233551025
aF1.798701286315918
aF1.8091322183609009
aF1.8220396041870117
aF1.8335161209106445
aF1.8450536727905273
aF1.8582946062088013
aF1.8702614307403564
aF1.883379578590393
aF1.89459228515625
aF1.9056673049926758
aF1.9186224937438965
aF1.929738998413086
aF1.9415569305419922
aF1.9545557498931885
aF1.966158151626587
aF1.9792349338531494
aF1.9903666973114014
aF2.0016613006591797
aF2.0145816802978516
aF2.0261645317077637
aF2.0392346382141113
aF2.050713062286377
aF2.062035322189331
aF2.0750598907470703
aF2.086500406265259
aF2.098567008972168
aF2.1108996868133545
aF2.1204993724823
aF2.1336488723754883
aF2.1455368995666504
aF2.155942916870117
aF2.1689658164978027
aF2.1808528900146484
aF2.1923866271972656
aF2.20540452003479
aF2.2169034481048584
aF2.229706287384033
aF2.241349220275879
aF2.252218723297119
aF2.265279769897461
aF2.276787281036377
aF2.2885384559631348
aF2.301598072052002
aF2.3136234283447266
aF2.3269245624542236
aF2.338021755218506
aF2.3495311737060547
aF2.3624813556671143
aF2.374068260192871
aF2.3869080543518066
aF2.3984296321868896
aF2.4092202186584473
aF2.42215633392334
aF2.433366298675537
aF2.444655418395996
aF2.457604169845581
aF2.4687535762786865
aF2.4805004596710205
aF2.4934606552124023
aF2.5029473304748535
aF2.5158932209014893
aF2.528024911880493
aF2.538095712661743
aF2.55102801322937
aF2.5628294944763184
aF2.5736427307128906
aF2.5865728855133057
aF2.5977351665496826
aF2.6095399856567383
aF2.6224727630615234
aF2.6346569061279297
aF2.649998188018799
aF2.6602325439453125
aF2.673211097717285
aF2.684640884399414
aF2.6956615447998047
aF2.7086181640625
aF2.7199199199676514
aF2.7319869995117188
aF2.7451348304748535
aF2.755216598510742
aF2.7681758403778076
aF2.780095338821411
aF2.791208267211914
aF2.804290294647217
aF2.8156604766845703
aF2.827561378479004
aF2.8421716690063477
aF2.8529772758483887
aF2.865899085998535
aF2.8770151138305664
aF2.889056444168091
aF2.9018898010253906
aF2.911619186401367
aF2.924626350402832
aF2.936511516571045
aF2.94716215133667
aF2.9600706100463867
aF2.9712514877319336
aF2.982205390930176
aF2.995138168334961
aF3.0063576698303223
aF3.018341064453125
aF3.0313913822174072
aF3.0410642623901367
aF3.0539817810058594
aF3.0659523010253906
aF3.0760889053344727
aF3.0892086029052734
aF3.100978136062622
aF3.11198091506958
aF3.1248764991760254
aF3.1362037658691406
aF3.148292064666748
aF3.161160945892334
aF3.171105146408081
aF3.1841118335723877
aF3.1959140300750732
aF3.206573247909546
aF3.219449520111084
aF3.2305915355682373
aF3.2421274185180664
aF3.2550220489501953
aF3.2662558555603027
aF3.2787013053894043
aF3.2909631729125977
aF3.300994634628296
aF3.313962459564209
aF3.3254919052124023
aF3.3360342979431152
aF3.3489058017730713
aF3.360271453857422
aF3.37142014503479
aF3.384404182434082
aF3.3956308364868164
aF3.407705307006836
aF3.4207773208618164
aF3.430652141571045
aF3.4436140060424805
aF3.455165386199951
aF3.4653475284576416
aF3.4782443046569824
aF3.4899065494537354
aF3.5004677772521973
aF3.5134685039520264
aF3.524688243865967
aF3.53580641746521
aF3.5489463806152344
aF3.5605058670043945
aF3.5729222297668457
aF3.585015058517456
aF3.595158815383911
aF3.608180522918701
aF3.6195645332336426
aF3.6310482025146484
aF3.644361972808838
aF3.655454158782959
aF3.6676392555236816
aF3.6807308197021484
aF3.6903882026672363
aF3.703489303588867
aF3.715360164642334
aF3.725797653198242
aF3.7388668060302734
aF3.75016450881958
aF3.7603254318237305
aF3.7731733322143555
aF3.7849740982055664
aF3.7966420650482178
aF3.809602737426758
aF3.8210549354553223
aF3.833949565887451
aF3.8455798625946045
aF3.856743574142456
aF3.8697807788848877
aF3.8806841373443604
aF3.892576217651367
aF3.9056549072265625
aF3.9149012565612793
aF3.9278879165649414
aF3.940544843673706
aF3.9501166343688965
aF3.96329927444458
aF3.974818229675293
aF3.9860122203826904
aF3.9991917610168457
aF4.010376453399658
aF4.021862030029297
aF4.034788131713867
aF4.046457290649414
aF4.059588432312012
aF4.0709614753723145
aF4.0824689865112305
aF4.095633506774902
aF4.107466697692871
aF4.120548248291016
aF4.1328277587890625
aF4.144146919250488
aF4.157175540924072
aF4.168812274932861
aF4.182096004486084
aF4.194204807281494
aF4.206238269805908
aF4.219228744506836
aF4.228854656219482
aF4.24183464050293
aF4.253130912780762
aF4.263821125030518
aF4.274022579193115
aF4.284947395324707
aF4.296065807342529
aF4.306990623474121
aF4.317753314971924
aF4.3295063972473145
aF4.340390205383301
aF4.351516246795654
aF4.362179756164551
aF4.373283386230469
aF4.384217262268066
aF4.395230293273926
aF4.406032085418701
aF4.416783332824707
aF4.427645683288574
aF4.437846660614014
aF4.448868751525879
aF4.459836006164551
aF4.470661640167236
aF4.482337951660156
aF4.493314266204834
aF4.5041608810424805
aF4.513603210449219
aF4.524542331695557
aF4.535609722137451
aF4.546504974365234
aF4.557337760925293
aF4.568345069885254
aF4.579335689544678
aF4.589963436126709
aF4.6010589599609375
aF4.611664772033691
aF4.622677326202393
aF4.633692264556885
aF4.644681930541992
aF4.655523300170898
aF4.66637659072876
aF4.677035331726074
aF4.686996936798096
aF4.6979851722717285
aF4.708840370178223
aF4.719648838043213
aF4.730593681335449
aF4.741470813751221
aF4.752328395843506
aF4.763543128967285
aF4.773211479187012
aF4.784026145935059
aF4.795010566711426
aF4.805809497833252
aF4.8165483474731445
aF4.827520847320557
aF4.838388442993164
aF4.848918914794922
aF4.860081195831299
aF4.870323181152344
aF4.8811187744140625
aF4.892035484313965
aF4.902748107910156
aF4.914017677307129
aF4.924860954284668
aF4.935508728027344
aF4.9464497566223145
aF4.9567766189575195
aF4.967935085296631
aF4.979173183441162
aF4.990151882171631
aF5.000941276550293
aF5.0117506980896
aF5.022383689880371
aF5.032275199890137
aF5.0433454513549805
aF5.054386615753174
aF5.065220355987549
aF5.076171875
aF5.0870561599731445
aF5.09767484664917
aF5.108830451965332
aF5.118298530578613
aF5.129101753234863
aF5.140240669250488
aF5.151303291320801
aF5.162196159362793
aF5.173173904418945
aF5.183986663818359
aF5.19441032409668
aF5.2051825523376465
aF5.215493202209473
aF5.226286888122559
aF5.23731803894043
aF5.248167991638184
aF5.259762287139893
aF5.271088600158691
aF5.281742095947266
aF5.291269779205322
aF5.3027215003967285
aF5.313699722290039
aF5.324825763702393
aF5.335686683654785
aF5.346547603607178
aF5.357330322265625
aF5.368095397949219
aF5.377983570098877
aF5.389101982116699
aF5.400331974029541
aF5.411316394805908
aF5.422507286071777
aF5.433459758758545
aF5.444228172302246
aF5.4551239013671875
aF5.464908599853516
aF5.475718021392822
aF5.486721038818359
aF5.497646808624268
aF5.508427619934082
aF5.519528388977051
aF5.530209064483643
aF5.541128635406494
aF5.5516462326049805
aF5.5626397132873535
aF5.573888778686523
aF5.585239410400391
aF5.596135139465332
aF5.606978416442871
aF5.617713451385498
aF5.627231597900391
aF5.638822078704834
aF5.649848461151123
aF5.6607465744018555
aF5.671717166900635
aF5.682564735412598
aF5.693216800689697
aF5.7040815353393555
aF5.713770866394043
aF5.724798679351807
aF5.735840797424316
aF5.74692440032959
aF5.757771015167236
aF5.76884651184082
aF5.779656410217285
aF5.790493011474609
aF5.799835205078125
aF5.810905456542969
aF5.821910858154297
aF5.8329668045043945
aF5.843800067901611
aF5.85488224029541
aF5.865775108337402
asssI1
g1
(g2
tp83
Rp84
I30
g1
(g2
tp85
Rp86
I1
(lp87
F0.09148859977722168
aF0.14109019935131073
aF0.19106999039649963
aF0.23890626430511475
aF0.2871701419353485
aF0.3366207480430603
aF0.38534224033355713
aF0.43371617794036865
aF0.4811292588710785
aF0.5311399102210999
aF0.5806422829627991
aF0.62946617603302
aF0.6773757338523865
aF0.7281235456466675
aF0.7754823565483093
aF0.8245372176170349
aF0.8720595836639404
aF0.9204695820808411
aF0.9679151773452759
aF1.0164296627044678
aF1.0639753341674805
aF1.1148942708969116
aF1.163054347038269
aF1.2104458808898926
aF1.2577753067016602
aF1.3050041198730469
aF1.3524246215820312
aF1.4001264572143555
aF1.4488892555236816
aF1.496302843093872
aF1.5437766313552856
aF1.5936716794967651
aF1.6410850286483765
aF1.6882519721984863
aF1.737335443496704
aF1.785033941268921
aF1.8324676752090454
aF1.8958669900894165
aF1.9440703392028809
aF1.9913437366485596
aF2.0395655632019043
aF2.0875370502471924
aF2.1349639892578125
aF2.18212628364563
aF2.229503870010376
aF2.276829719543457
aF2.323899984359741
aF2.3710994720458984
aF2.418544292449951
aF2.4670047760009766
aF2.514460802078247
aF2.5618503093719482
aF2.609123945236206
aF2.6563563346862793
aF2.7036657333374023
aF2.7543368339538574
aF2.8016583919525146
aF2.848829746246338
aF2.8960297107696533
aF2.944387912750244
aF2.991713762283325
aF3.0396876335144043
aF3.087350606918335
aF3.134732484817505
aF3.1821188926696777
aF3.2291550636291504
aF3.277576208114624
aF3.324911594390869
aF3.372145175933838
aF3.419520854949951
aF3.4667630195617676
aF3.5139951705932617
aF3.562258005142212
aF3.609381914138794
aF3.6567015647888184
aF3.7039852142333984
aF3.7510199546813965
aF3.815248966217041
aF3.8630523681640625
aF3.9100441932678223
aF3.957197427749634
aF4.005076885223389
aF4.052502155303955
aF4.100214958190918
aF4.147390365600586
aF4.1946797370910645
aF4.241795063018799
aF4.2891459465026855
aF4.336891174316406
aF4.384103775024414
aF4.431524753570557
aF4.478829860687256
aF4.526254177093506
aF4.573404788970947
aF4.620802402496338
aF4.668121337890625
aF4.715342998504639
aF4.762446880340576
aF4.811029434204102
aF4.858389377593994
aF4.905519485473633
aF4.952824592590332
aF5.000569820404053
aF5.048059463500977
aF5.095388412475586
aF5.143024921417236
aF5.190435886383057
aF5.243176460266113
aF5.290518760681152
aF5.337645053863525
aF5.38499641418457
aF5.432525157928467
aF5.479937553405762
aF5.527212619781494
aF5.574534893035889
aF5.621791839599609
aF5.668816566467285
aF5.717421531677246
aF5.764608383178711
aF5.811766147613525
aF5.858847618103027
aF5.906402587890625
aF5.9542741775512695
aF6.0015435218811035
aF6.048719882965088
aF6.0958380699157715
aF6.144418716430664
aF6.191385269165039
aF6.238686561584473
aF6.286120414733887
aF6.333395004272461
aF6.380584716796875
aF6.427730560302734
aF6.474984645843506
aF6.522117614746094
aF6.569307327270508
aF6.6170549392700195
aF6.664341449737549
aF6.711661338806152
aF6.7590179443359375
aF6.806466102600098
aF6.853715896606445
aF6.901617050170898
aF6.949102401733398
aF6.99652624130249
aF7.044922351837158
aF7.092350482940674
aF7.139564514160156
aF7.187000274658203
aF7.234226703643799
aF7.281455039978027
aF7.3288421630859375
aF7.376145839691162
aF7.423213005065918
aF7.471210479736328
aF7.518802165985107
aF7.566073417663574
aF7.61325216293335
aF7.660494804382324
aF7.707860469818115
aF7.7552361488342285
aF7.802595615386963
aF7.850082874298096
aF7.897333145141602
aF7.945466041564941
aF7.993009090423584
aF8.040454864501953
aF8.087862014770508
aF8.135004997253418
aF8.182308197021484
aF8.230226516723633
aF8.277417182922363
aF8.324690818786621
aF8.373126983642578
aF8.420604705810547
aF8.467782020568848
aF8.515191078186035
aF8.562736511230469
aF8.610077857971191
aF8.657279968261719
aF8.704669952392578
aF8.752190589904785
aF8.799676895141602
aF8.848165512084961
aF8.895692825317383
aF8.94318675994873
aF8.990416526794434
aF9.037575721740723
aF9.085078239440918
aF9.132357597351074
aF9.179522514343262
aF9.226730346679688
aF9.275188446044922
aF9.322310447692871
aF9.369600296020508
aF9.416796684265137
aF9.46403980255127
aF9.511187553405762
aF9.558382987976074
aF9.605561256408691
aF9.652655601501465
aF9.699536323547363
aF9.747958183288574
aF9.795369148254395
aF9.842569351196289
aF9.889656066894531
aF9.937137603759766
aF9.984469413757324
aF10.03178882598877
aF10.079092979431152
aF10.126476287841797
aF10.186928749084473
aF10.23475170135498
aF10.282103538513184
aF10.329351425170898
aF10.376760482788086
aF10.423982620239258
aF10.471090316772461
aF10.518332481384277
aF10.565451622009277
aF10.613031387329102
aF10.660179138183594
aF10.707300186157227
aF10.754597663879395
aF10.801642417907715
aF10.848812103271484
aF10.895879745483398
aF10.942951202392578
aF10.989810943603516
aF11.036859512329102
aF11.084067344665527
aF11.131214141845703
aF11.17856502532959
aF11.225688934326172
aF11.272886276245117
aF11.319803237915039
aF11.366857528686523
aF11.414063453674316
aF11.46108627319336
aF11.50822925567627
aF11.555481910705566
aF11.602685928344727
aF11.64973258972168
aF11.696832656860352
aF11.7440185546875
aF11.791237831115723
aF11.839709281921387
aF11.886945724487305
aF11.93425178527832
aF11.981192588806152
aF12.028454780578613
aF12.076743125915527
aF12.12405776977539
aF12.171127319335938
aF12.218528747558594
aF12.265726089477539
aF12.312829971313477
aF12.359919548034668
aF12.407182693481445
aF12.45449161529541
aF12.501484870910645
aF12.54894733428955
aF12.596238136291504
aF12.644220352172852
aF12.691523551940918
aF12.738807678222656
aF12.78608226776123
aF12.833436965942383
aF12.880542755126953
aF12.927831649780273
aF12.975224494934082
aF13.022441864013672
aF13.069387435913086
aF13.11669921875
aF13.163870811462402
aF13.21110725402832
aF13.258423805236816
aF13.305925369262695
aF13.35318660736084
aF13.401369094848633
aF13.448911666870117
aF13.496350288391113
aF13.543485641479492
aF13.590825080871582
aF13.638252258300781
aF13.685633659362793
aF13.732833862304688
aF13.780186653137207
aF13.827655792236328
aF13.87499713897705
aF13.92237377166748
aF13.969758987426758
aF14.017128944396973
aF14.064295768737793
aF14.111357688903809
aF14.159579277038574
aF14.207022666931152
aF14.254385948181152
aF14.301490783691406
aF14.348655700683594
aF14.39571475982666
aF14.442700386047363
aF14.489870071411133
aF14.537179946899414
aF14.584466934204102
aF14.63167667388916
aF14.6788969039917
aF14.72603702545166
aF14.77298355102539
aF14.820340156555176
aF14.867711067199707
aF14.916172981262207
aF14.963346481323242
aF15.010600090026855
aF15.057846069335938
aF15.10489273071289
aF15.152047157287598
aF15.199337005615234
aF15.246567726135254
aF15.293838500976562
aF15.341034889221191
aF15.388242721557617
aF15.435295104980469
aF15.482495307922363
aF15.53213119506836
aF15.57951545715332
aF15.626471519470215
aF15.674293518066406
aF15.721563339233398
aF15.768957138061523
aF15.816032409667969
aF15.863235473632812
aF15.9103422164917
aF15.957267761230469
aF16.004152297973633
aF16.05119514465332
aF16.098346710205078
aF16.145410537719727
aF16.192806243896484
aF16.240100860595703
aF16.287029266357422
aF16.33400535583496
aF16.381072998046875
aF16.42825698852539
aF16.47640609741211
aF16.52370834350586
aF16.571260452270508
aF16.61835479736328
aF16.665597915649414
aF16.712671279907227
aF16.760011672973633
aF16.807632446289062
aF16.855056762695312
aF16.902956008911133
aF16.950204849243164
aF16.99724578857422
aF17.044620513916016
aF17.092056274414062
aF17.13929557800293
aF17.186426162719727
aF17.234664916992188
aF17.283824920654297
aF17.335556030273438
aF17.38580894470215
aF17.433000564575195
aF17.48045539855957
aF17.527929306030273
aF17.57523536682129
aF17.622417449951172
aF17.6696720123291
aF17.71672248840332
aF17.763629913330078
aF17.810810089111328
aF17.858163833618164
aF17.905384063720703
aF17.952411651611328
aF18.00083351135254
aF18.047883987426758
aF18.094703674316406
aF18.142044067382812
aF18.189308166503906
aF18.236610412597656
aF18.283870697021484
aF18.331069946289062
aF18.37837791442871
aF18.425573348999023
aF18.472902297973633
aF18.520240783691406
aF18.56739616394043
aF18.614486694335938
aF18.661602020263672
aF18.70889663696289
aF18.756690979003906
aF18.803897857666016
aF18.85123062133789
aF18.898601531982422
aF18.94580841064453
aF18.992952346801758
aF19.040220260620117
aF19.08768653869629
aF19.134794235229492
aF19.182065963745117
aF19.229331970214844
aF19.276336669921875
aF19.32333755493164
aF19.370494842529297
aF19.41749382019043
aF19.46426773071289
aF19.5113468170166
aF19.559682846069336
aF19.60677146911621
aF19.65387725830078
aF19.701099395751953
aF19.74810791015625
aF19.794937133789062
aF19.842145919799805
aF19.889450073242188
aF19.936573028564453
aF19.983661651611328
aF20.03091049194336
aF20.07820701599121
aF20.125179290771484
aF20.17228889465332
aF20.2195987701416
aF20.266788482666016
aF20.315038681030273
aF20.362316131591797
aF20.409658432006836
aF20.45677375793457
aF20.50397491455078
aF20.551395416259766
aF20.598716735839844
aF20.64583396911621
aF20.69317626953125
aF20.740476608276367
aF20.787717819213867
aF20.834728240966797
aF20.882091522216797
aF20.93109893798828
aF20.9793701171875
aF21.02629280090332
aF21.074581146240234
aF21.121849060058594
aF21.16896629333496
aF21.218944549560547
aF21.266191482543945
aF21.313594818115234
aF21.360801696777344
aF21.408123016357422
aF21.455341339111328
aF21.50250244140625
aF21.549514770507812
aF21.596630096435547
aF21.6439151763916
aF21.691139221191406
aF21.738494873046875
aF21.785825729370117
aF21.83357810974121
aF21.880712509155273
aF21.928836822509766
aF21.981754302978516
aF22.035354614257812
aF22.09023666381836
aF22.14086151123047
aF22.1903018951416
aF22.237812042236328
aF22.285429000854492
aF22.333045959472656
aF22.3825740814209
aF22.430614471435547
aF22.478679656982422
aF22.52813720703125
aF22.578006744384766
aF22.62794303894043
aF22.67514991760254
aF22.723852157592773
aF22.771827697753906
aF22.819629669189453
aF22.868635177612305
aF22.918153762817383
aF22.96661949157715
aF23.015193939208984
aF23.06464385986328
aF23.116682052612305
aF23.167800903320312
aF23.219179153442383
aF23.266450881958008
aF23.31394386291504
aF23.361553192138672
aF23.410369873046875
aF23.45773696899414
aF23.50507164001465
aF23.55247688293457
aF23.59987449645996
aF23.647216796875
aF23.694517135620117
aF23.74213981628418
aF23.789478302001953
aF23.836753845214844
aF23.884140014648438
asssI4
g1
(g2
tp88
Rp89
I30
g1
(g2
tp90
Rp91
I1
(lp92
F0.0927613377571106
aF0.11686403304338455
aF0.135097473859787
aF0.15302978456020355
aF0.17319564521312714
aF0.19333964586257935
aF0.21140675246715546
aF0.23146140575408936
aF0.2514239549636841
aF0.2694719135761261
aF0.28958672285079956
aF0.30948248505592346
aF0.32734161615371704
aF0.3475691080093384
aF0.3676909804344177
aF0.3857593834400177
aF0.4056900441646576
aF0.42570585012435913
aF0.4437001049518585
aF0.46371933817863464
aF0.48344358801841736
aF0.5034310221672058
aF0.5214847326278687
aF0.5418185591697693
aF0.5616893768310547
aF0.5792979001998901
aF0.5995028614997864
aF0.6195090413093567
aF0.6397520303726196
aF0.6575484871864319
aF0.6775647401809692
aF0.6977070569992065
aF0.715728759765625
aF0.7358660697937012
aF0.7558233141899109
aF0.7735019326210022
aF0.7937420606613159
aF0.8138054013252258
aF0.8338401913642883
aF0.8516225814819336
aF0.8716323971748352
aF0.8919281363487244
aF0.9098769426345825
aF0.9299805760383606
aF0.9499813914299011
aF0.9696394205093384
aF0.9877643585205078
aF1.0079436302185059
aF1.0278784036636353
aF1.0478601455688477
aF1.0657083988189697
aF1.085774540901184
aF1.1056771278381348
aF1.12554931640625
aF1.1434367895126343
aF1.163468360900879
aF1.183494210243225
aF1.2034505605697632
aF1.221672534942627
aF1.241608738899231
aF1.2616750001907349
aF1.2796447277069092
aF1.2997595071792603
aF1.3196303844451904
aF1.337501049041748
aF1.3579144477844238
aF1.3792577981948853
aF1.3972301483154297
aF1.415182113647461
aF1.4352036714553833
aF1.4553526639938354
aF1.4754302501678467
aF1.4934881925582886
aF1.513535976409912
aF1.5334439277648926
aF1.5514910221099854
aF1.571834683418274
aF1.5918728113174438
aF1.6098389625549316
aF1.6301512718200684
aF1.650400161743164
aF1.6682822704315186
aF1.6884037256240845
aF1.7084895372390747
aF1.7299965620040894
aF1.7479568719863892
aF1.7658705711364746
aF1.7859476804733276
aF1.8059680461883545
aF1.8239365816116333
aF1.8438856601715088
aF1.8638464212417603
aF1.8837711811065674
aF1.901826024055481
aF1.9218593835830688
aF1.9417517185211182
aF1.959728717803955
aF1.9799671173095703
aF2.0000827312469482
aF2.0179224014282227
aF2.037904739379883
aF2.0580577850341797
aF2.078043222427368
aF2.0962131023406982
aF2.116162061691284
aF2.135986328125
aF2.156005859375
aF2.1740212440490723
aF2.1940274238586426
aF2.2139391899108887
aF2.2318131923675537
aF2.252067804336548
aF2.2721598148345947
aF2.2900936603546143
aF2.3102657794952393
aF2.3303380012512207
aF2.350407600402832
aF2.3682668209075928
aF2.3883724212646484
aF2.408450126647949
aF2.4263134002685547
aF2.446373462677002
aF2.466486930847168
aF2.486494541168213
aF2.504469871520996
aF2.5243983268737793
aF2.5443878173828125
aF2.562502861022949
aF2.5827529430389404
aF2.6029739379882812
aF2.620718240737915
aF2.6408908367156982
aF2.660992383956909
aF2.6810600757598877
aF2.7002828121185303
aF2.719045877456665
aF2.7390146255493164
aF2.756965160369873
aF2.777003288269043
aF2.7967963218688965
aF2.8170032501220703
aF2.83500337600708
aF2.8554630279541016
aF2.873375177383423
aF2.893392562866211
aF2.9134681224823
aF2.933511257171631
aF2.951988697052002
aF2.9715113639831543
aF2.9912142753601074
aF3.0095016956329346
aF3.029717445373535
aF3.0482585430145264
aF3.068026542663574
aF3.087864637374878
aF3.1058554649353027
aF3.125824213027954
aF3.144162178039551
aF3.1641979217529297
aF3.184114933013916
aF3.2021162509918213
aF3.222289562225342
aF3.2406017780303955
aF3.260528564453125
aF3.280599594116211
aF3.2987122535705566
aF3.318659782409668
aF3.3370931148529053
aF3.357090950012207
aF3.377049446105957
aF3.3952136039733887
aF3.415330410003662
aF3.4337053298950195
aF3.45369029045105
aF3.473497152328491
aF3.4914116859436035
aF3.511658191680908
aF3.531890869140625
aF3.5497257709503174
aF3.5699214935302734
aF3.5899252891540527
aF3.609928607940674
aF3.6278867721557617
aF3.648029088973999
aF3.667980909347534
aF3.6859257221221924
aF3.7062795162200928
aF3.7263104915618896
aF3.7442290782928467
aF3.7644546031951904
aF3.7845866680145264
aF3.802703857421875
aF3.8229169845581055
aF3.8409721851348877
aF3.8612608909606934
aF3.881481170654297
aF3.9015984535217285
aF3.91960072517395
aF3.939857244491577
aF3.959951400756836
aF3.9779932498931885
aF3.998098850250244
aF4.019423007965088
aF4.038204193115234
aF4.056272506713867
aF4.076209545135498
aF4.094178676605225
aF4.114406585693359
aF4.13458776473999
aF4.152819633483887
aF4.172985076904297
aF4.193082809448242
aF4.211231708526611
aF4.231316089630127
aF4.251573085784912
aF4.269657611846924
aF4.289794445037842
aF4.30797004699707
aF4.328115463256836
aF4.348075866699219
aF4.368239879608154
aF4.386282444000244
aF4.406472206115723
aF4.424495697021484
aF4.444652080535889
aF4.464872360229492
aF4.483009338378906
aF4.503194808959961
aF4.523329257965088
aF4.54127311706543
aF4.5616960525512695
aF4.581655025482178
aF4.601396560668945
aF4.619506359100342
aF4.6396026611328125
aF4.659830093383789
aF4.677769184112549
aF4.69792366027832
aF4.71805477142334
aF4.735858917236328
aF4.756011009216309
aF4.77610969543457
aF4.794188499450684
aF4.814489364624023
aF4.834467887878418
aF4.854665279388428
aF4.872724533081055
aF4.892778396606445
aF4.910969257354736
aF4.931035041809082
aF4.951099395751953
aF4.971212387084961
aF4.989262580871582
aF5.009435653686523
aF5.02933931350708
aF5.04732084274292
aF5.067442417144775
aF5.087482452392578
aF5.1054792404174805
aF5.12569522857666
aF5.1458635330200195
aF5.164022445678711
aF5.1841044425964355
aF5.204038143157959
aF5.224147319793701
aF5.242265701293945
aF5.262444496154785
aF5.282444953918457
aF5.3004841804504395
aF5.320737361907959
aF5.340845108032227
aF5.358972072601318
aF5.3789544105529785
aF5.398834705352783
aF5.416953086853027
aF5.4371256828308105
aF5.457161903381348
aF5.47703218460083
aF5.495080947875977
aF5.515267848968506
aF5.535399436950684
aF5.553646087646484
aF5.573738098144531
aF5.5936665534973145
aF5.6117777824401855
aF5.631950378417969
aF5.652134418487549
aF5.670063018798828
aF5.690161228179932
aF5.710443496704102
aF5.72845458984375
aF5.748823642730713
aF5.768723964691162
aF5.786697864532471
aF5.807028770446777
aF5.82718563079834
aF5.845198631286621
aF5.865314483642578
aF5.8853254318237305
aF5.9034295082092285
aF5.923652172088623
aF5.943780422210693
aF5.961679935455322
aF5.981921195983887
aF6.002038955688477
aF6.020106315612793
aF6.040420055389404
aF6.060375213623047
aF6.078371047973633
aF6.098702907562256
aF6.1189093589782715
aF6.136905670166016
aF6.157108306884766
aF6.177309513092041
aF6.195399761199951
aF6.215681076049805
aF6.235655307769775
aF6.253726005554199
aF6.273612022399902
aF6.293717861175537
aF6.31394100189209
aF6.332119464874268
aF6.352118492126465
aF6.372195720672607
aF6.390244483947754
aF6.410433769226074
aF6.430647850036621
aF6.448744297027588
aF6.469076633453369
aF6.488898754119873
aF6.506979942321777
aF6.527196407318115
aF6.547446250915527
aF6.565587997436523
aF6.585847854614258
aF6.605981349945068
aF6.624134540557861
aF6.644328594207764
aF6.664605140686035
aF6.683479309082031
aF6.702367782592773
aF6.722544193267822
aF6.740481853485107
aF6.760584831237793
aF6.7807488441467285
aF6.798924922943115
aF6.819040298461914
aF6.83927583694458
aF6.857072830200195
aF6.877383708953857
aF6.897575855255127
aF6.915829181671143
aF6.936150550842285
aF6.956092834472656
aF6.974218368530273
aF6.99440336227417
aF7.014394283294678
aF7.0325164794921875
aF7.052826881408691
aF7.07314395904541
aF7.091029167175293
aF7.11122989654541
aF7.131446361541748
aF7.149219036102295
aF7.169310092926025
aF7.189452648162842
aF7.209582328796387
aF7.227782726287842
aF7.247820854187012
aF7.2678375244140625
aF7.285927772521973
aF7.307360649108887
aF7.326173305511475
aF7.344063758850098
aF7.364140033721924
aF7.38413143157959
aF7.402457237243652
aF7.422493934631348
aF7.442524433135986
aF7.460685729980469
aF7.480932235717773
aF7.501155376434326
aF7.519165515899658
aF7.539348125457764
aF7.559398174285889
aF7.5775146484375
aF7.597475051879883
aF7.617617130279541
aF7.635692596435547
aF7.656006813049316
aF7.676164150238037
aF7.694095611572266
aF7.715542316436768
aF7.7345356941223145
aF7.752674579620361
aF7.772633075714111
aF7.792490005493164
aF7.810599327087402
aF7.830953121185303
aF7.8508992195129395
aF7.8689165115356445
aF7.8892059326171875
aF7.909083366394043
aF7.92724609375
aF7.947525501251221
aF7.967751502990723
aF7.98579740524292
aF8.005858421325684
aF8.026093482971191
aF8.044058799743652
aF8.064156532287598
aF8.084218978881836
aF8.10227108001709
aF8.122444152832031
aF8.142637252807617
aF8.16074275970459
aF8.18075942993164
aF8.200873374938965
aF8.218972206115723
aF8.23914623260498
aF8.259251594543457
aF8.277118682861328
aF8.297550201416016
aF8.317608833312988
aF8.335721969604492
aF8.355883598327637
aF8.375772476196289
aF8.393856048583984
aF8.414200782775879
aF8.434309959411621
aF8.452226638793945
aF8.472431182861328
aF8.492605209350586
aF8.510684967041016
aF8.531020164489746
aF8.551094055175781
aF8.569162368774414
aF8.589343070983887
aF8.609396934509277
aF8.627584457397461
aF8.647869110107422
aF8.667864799499512
aF8.685958862304688
aF8.705818176269531
aF8.725934982299805
aF8.74402141571045
aF8.765851974487305
aF8.784698486328125
aF8.802675247192383
aF8.822868347167969
aF8.84286880493164
aF8.861021041870117
aF8.881052017211914
aF8.901029586791992
aF8.91989517211914
aF8.938981056213379
aF8.957100868225098
aF8.975208282470703
aF8.993953704833984
aF9.012746810913086
aF9.031554222106934
aF9.04948902130127
aF9.067919731140137
aF9.086475372314453
aF9.105400085449219
aF9.123710632324219
aF9.142104148864746
aF9.161008834838867
aF9.179893493652344
aF9.198600769042969
aF9.21641731262207
aF9.234844207763672
aF9.253632545471191
aF9.272403717041016
aF9.290515899658203
aF9.308950424194336
aF9.32780647277832
aF9.346589088439941
aF9.365020751953125
aF9.382879257202148
aF9.402201652526855
aF9.422012329101562
aF9.440925598144531
aF9.459586143493652
aF9.477487564086914
aF9.496170997619629
aF9.514841079711914
aF9.53311538696289
aF9.551112174987793
aF9.569993019104004
aF9.588397026062012
aF9.607339859008789
aF9.625734329223633
aF9.64404296875
aF9.66287899017334
aF9.681550979614258
aF9.700241088867188
aF9.717747688293457
aF9.736433982849121
aF9.755180358886719
assssssag1
(g2
tp93
Rp94
g5
g1
(g2
tp95
Rp96
I500
g1
(g2
tp97
Rp98
I80000
g1
(g2
tp99
Rp100
I8
g1
(g2
tp101
Rp102
I30
g1
(g2
tp103
Rp104
I1
(lp105
F3.460000073118863e-07
aF0.014285515062510967
aF0.02824050560593605
aF0.043399155139923096
aF0.05801943689584732
aF0.07253686338663101
aF0.08791603147983551
aF0.10324766486883163
aF0.11775340139865875
aF0.13304853439331055
aF0.14618225395679474
aF0.15989543497562408
aF0.1746993362903595
aF0.18854498863220215
aF0.20482376217842102
aF0.21995162963867188
aF0.23315775394439697
aF0.2493831217288971
aF0.26215261220932007
aF0.27618107199668884
aF0.29108232259750366
aF0.30456066131591797
aF0.3197562098503113
aF0.335038423538208
aF0.34910765290260315
aF0.36513751745224
aF0.37976139783859253
aF0.3930262327194214
aF0.40890103578567505
aF0.42177683115005493
aF0.43564483523368835
aF0.4507169723510742
aF0.4643761217594147
aF0.4804418683052063
aF0.4971298575401306
aF0.5124458074569702
aF0.5275851488113403
aF0.543533205986023
aF0.5582306385040283
aF0.5721756815910339
aF0.5887360572814941
aF0.6034573316574097
aF0.6167414784431458
aF0.6329491138458252
aF0.6476025581359863
aF0.6609164476394653
aF0.6763155460357666
aF0.6912392973899841
aF0.7055376172065735
aF0.7217748165130615
aF0.7346379160881042
aF0.7487915754318237
aF0.76407790184021
aF0.7774624228477478
aF0.7930330038070679
aF0.8078107237815857
aF0.8216843605041504
aF0.8370496034622192
aF0.8500604629516602
aF0.8638530373573303
aF0.878798246383667
aF0.8929842710494995
aF0.9095137119293213
aF0.9253090023994446
aF0.9387540817260742
aF0.9525455236434937
aF0.9670788049697876
aF0.9815526008605957
aF0.9969885349273682
aF1.0101555585861206
aF1.0242292881011963
aF1.0392463207244873
aF1.0530959367752075
aF1.0689504146575928
aF1.0819026231765747
aF1.0960320234298706
aF1.1111607551574707
aF1.1246867179870605
aF1.1406452655792236
aF1.1560418605804443
aF1.1697711944580078
aF1.1852515935897827
aF1.2000300884246826
aF1.2139238119125366
aF1.2295089960098267
aF1.2425636053085327
aF1.2563295364379883
aF1.2714930772781372
aF1.2852510213851929
aF1.301025390625
aF1.3152998685836792
aF1.3293688297271729
aF1.3445796966552734
aF1.3576241731643677
aF1.371181845664978
aF1.3863952159881592
aF1.4003275632858276
aF1.4164913892745972
aF1.4311563968658447
aF1.4445436000823975
aF1.4603350162506104
aF1.4731884002685547
aF1.4872288703918457
aF1.5024900436401367
aF1.5161938667297363
aF1.531654953956604
aF1.5461158752441406
aF1.56026291847229
aF1.575443148612976
aF1.5884782075881958
aF1.602218508720398
aF1.616607427597046
aF1.6307158470153809
aF1.6459155082702637
aF1.6611460447311401
aF1.675520896911621
aF1.691303014755249
aF1.704296350479126
aF1.7181425094604492
aF1.7335760593414307
aF1.7470848560333252
aF1.762579083442688
aF1.7772603034973145
aF1.7912867069244385
aF1.8063490390777588
aF1.8212714195251465
aF1.835465669631958
aF1.8508270978927612
aF1.863839030265808
aF1.8774957656860352
aF1.8924486637115479
aF1.9067291021347046
aF1.922741413116455
aF1.9375983476638794
aF1.9511040449142456
aF1.966942548751831
aF1.9800187349319458
aF1.993725299835205
aF2.009194850921631
aF2.0228397846221924
aF2.03889536857605
aF2.0544509887695312
aF2.0680923461914062
aF2.0834126472473145
aF2.097770929336548
aF2.1119072437286377
aF2.1273088455200195
aF2.140515089035034
aF2.1544158458709717
aF2.1691231727600098
aF2.1829707622528076
aF2.198918104171753
aF2.2119667530059814
aF2.225965976715088
aF2.2412593364715576
aF2.2548041343688965
aF2.2701406478881836
aF2.284703254699707
aF2.2987749576568604
aF2.3140788078308105
aF2.3270668983459473
aF2.340833902359009
aF2.3556458950042725
aF2.369488477706909
aF2.3854079246520996
aF2.400388717651367
aF2.4138104915618896
aF2.4299726486206055
aF2.4448740482330322
aF2.458049774169922
aF2.474001169204712
aF2.489079475402832
aF2.5025103092193604
aF2.518890857696533
aF2.533982753753662
aF2.5471677780151367
aF2.5630362033843994
aF2.575953960418701
aF2.589900493621826
aF2.6050429344177246
aF2.618582248687744
aF2.634260654449463
aF2.648952007293701
aF2.6622514724731445
aF2.677737236022949
aF2.690643548965454
aF2.7041845321655273
aF2.7185721397399902
aF2.7328238487243652
aF2.748826026916504
aF2.761652708053589
aF2.7756004333496094
aF2.790961503982544
aF2.8046107292175293
aF2.818830966949463
aF2.8337044715881348
aF2.8479623794555664
aF2.8632426261901855
aF2.8762946128845215
aF2.8901798725128174
aF2.9051356315612793
aF2.9191412925720215
aF2.9372665882110596
aF2.955496072769165
aF2.9737586975097656
aF2.9892690181732178
aF3.00350284576416
aF3.0179443359375
aF3.0329184532165527
aF3.046833038330078
aF3.062431812286377
aF3.077627658843994
aF3.0917859077453613
aF3.107933521270752
aF3.1209139823913574
aF3.134665012359619
aF3.149691104888916
aF3.1635031700134277
aF3.178725242614746
aF3.193408727645874
aF3.2075910568237305
aF3.2229199409484863
aF3.2379939556121826
aF3.25203275680542
aF3.2674853801727295
aF3.280341148376465
aF3.2942981719970703
aF3.3095169067382812
aF3.3230485916137695
aF3.3383688926696777
aF3.3532207012176514
aF3.3674678802490234
aF3.3829970359802246
aF3.397646903991699
aF3.4121451377868652
aF3.4273648262023926
aF3.4406661987304688
aF3.454409122467041
aF3.468468189239502
aF3.482741117477417
aF3.498124122619629
aF3.5113487243652344
aF3.5250988006591797
aF3.5398306846618652
aF3.5536484718322754
aF3.5698447227478027
aF3.582822322845459
aF3.5967001914978027
aF3.6116278171539307
aF3.625063896179199
aF3.64022159576416
aF3.654351234436035
aF3.669477939605713
aF3.6860198974609375
aF3.698866844177246
aF3.7128238677978516
aF3.7277684211730957
aF3.741410970687866
aF3.756739616394043
aF3.771557092666626
aF3.785425901412964
aF3.801353931427002
aF3.8143486976623535
aF3.8282556533813477
aF3.8433837890625
aF3.856959342956543
aF3.8728175163269043
aF3.8875720500946045
aF3.900855541229248
aF3.916691541671753
aF3.9298157691955566
aF3.943718433380127
aF3.95829176902771
aF3.9718761444091797
aF3.9879188537597656
aF4.002996921539307
aF4.016375541687012
aF4.031659126281738
aF4.046660423278809
aF4.060750484466553
aF4.076343536376953
aF4.089353561401367
aF4.103236675262451
aF4.117661476135254
aF4.132160186767578
aF4.148626804351807
aF4.163746356964111
aF4.177418231964111
aF4.193231582641602
aF4.2060933113098145
aF4.220076560974121
aF4.23485803604126
aF4.248309135437012
aF4.263555526733398
aF4.2779436111450195
aF4.292361736297607
aF4.308422565460205
aF4.321284770965576
aF4.335151672363281
aF4.350052833557129
aF4.363725662231445
aF4.378959655761719
aF4.394009590148926
aF4.40810489654541
aF4.423705101013184
aF4.436981201171875
aF4.450744152069092
aF4.465814590454102
aF4.479548454284668
aF4.495856761932373
aF4.511588096618652
aF4.5255608558654785
aF4.539881706237793
aF4.554729461669922
aF4.570043087005615
aF4.588747024536133
aF4.603947162628174
aF4.6191301345825195
aF4.632660388946533
aF4.64795446395874
aF4.664248943328857
aF4.677796363830566
aF4.692102432250977
aF4.7078046798706055
aF4.721529960632324
aF4.736823558807373
aF4.752106189727783
aF4.76600456237793
aF4.782270431518555
aF4.797070026397705
aF4.810248851776123
aF4.825836658477783
aF4.839010715484619
aF4.852961540222168
aF4.868345260620117
aF4.882231712341309
aF4.895779609680176
aF4.909527778625488
aF4.922718524932861
aF4.936781406402588
aF4.949981689453125
aF4.96307897567749
aF4.977735996246338
aF4.990983486175537
aF5.004823684692383
aF5.018321990966797
aF5.031688213348389
aF5.046052932739258
aF5.059288501739502
aF5.073054313659668
aF5.086526870727539
aF5.099323272705078
aF5.114038467407227
aF5.127615928649902
aF5.1409220695495605
aF5.15561580657959
aF5.168416976928711
aF5.183250904083252
aF5.196915626525879
aF5.209959983825684
aF5.224632263183594
aF5.238020896911621
aF5.251745223999023
aF5.265379905700684
aF5.278797626495361
aF5.293247699737549
aF5.306272983551025
aF5.3208417892456055
aF5.334456443786621
aF5.347288131713867
aF5.361963748931885
aF5.379663467407227
aF5.396832466125488
aF5.4114484786987305
aF5.426253795623779
aF5.439696788787842
aF5.453906059265137
aF5.46691370010376
aF5.480400562286377
aF5.494100570678711
aF5.506892681121826
aF5.521592140197754
aF5.534968852996826
aF5.548038482666016
aF5.562725067138672
aF5.576414108276367
aF5.59046745300293
aF5.604142665863037
aF5.61704683303833
aF5.631974220275879
aF5.645415306091309
aF5.659277439117432
aF5.672842979431152
aF5.685643196105957
aF5.699826717376709
aF5.713387489318848
aF5.726555824279785
aF5.7411580085754395
aF5.754347801208496
aF5.767635345458984
aF5.781160831451416
aF5.7939348220825195
aF5.808315277099609
aF5.82167387008667
aF5.834683895111084
aF5.8489251136779785
aF5.862048149108887
aF5.875454902648926
aF5.889030933380127
aF5.901994228363037
aF5.916010856628418
aF5.929594039916992
aF5.942597389221191
aF5.957026958465576
aF5.970333576202393
aF5.983920097351074
aF5.997777938842773
aF6.010860443115234
aF6.025547981262207
aF6.038956642150879
aF6.0522894859313965
aF6.066526412963867
aF6.079591751098633
aF6.093166351318359
aF6.106688499450684
aF6.1195549964904785
aF6.134056091308594
aF6.1479597091674805
aF6.162049293518066
aF6.176013946533203
aF6.188659191131592
aF6.203125476837158
aF6.216701984405518
aF6.229344844818115
aF6.2464423179626465
aF6.25965690612793
aF6.274096488952637
aF6.286863327026367
aF6.3017258644104
aF6.315196990966797
aF6.328055381774902
aF6.342823028564453
aF6.3560638427734375
aF6.369332313537598
aF6.383528709411621
aF6.3968377113342285
aF6.411758899688721
aF6.42537784576416
aF6.438714981079102
aF6.453098773956299
aF6.466387748718262
aF6.47963285446167
aF6.493322372436523
aF6.506295204162598
aF6.520604133605957
aF6.534049034118652
aF6.547400951385498
aF6.5615715980529785
aF6.574749946594238
aF6.588230609893799
aF6.601797580718994
aF6.614649772644043
aF6.629126071929932
aF6.642729759216309
aF6.655971527099609
aF6.670351028442383
aF6.683350563049316
aF6.69707727432251
aF6.710554122924805
aF6.723601341247559
aF6.737776279449463
aF6.751143455505371
aF6.7645721435546875
aF6.778773784637451
aF6.79183292388916
aF6.80665397644043
aF6.820270538330078
aF6.833180904388428
aF6.847956657409668
aF6.861660957336426
aF6.875405311584473
aF6.889139175415039
aF6.902167320251465
aF6.916547775268555
aF6.9298624992370605
aF6.943163871765137
aF6.957635402679443
aF6.970772743225098
aF6.985593795776367
aF6.999040603637695
aF7.012411117553711
aF7.0265793800354
aF7.039725303649902
aF7.053096294403076
aF7.0667266845703125
aF7.079676628112793
aF7.093868255615234
aF7.107342720031738
aF7.120596885681152
aF7.134840965270996
asssI1
g1
(g2
tp106
Rp107
I30
g1
(g2
tp108
Rp109
I1
(lp110
F2.639999934217485e-07
aF0.05417880043387413
aF0.1091143786907196
aF0.1638244241476059
aF0.2174011468887329
aF0.2724834084510803
aF0.3263363242149353
aF0.38116133213043213
aF0.4354647994041443
aF0.48917263746261597
aF0.543881893157959
aF0.5977340340614319
aF0.652758002281189
aF0.706382691860199
aF0.7611880302429199
aF0.8158593773841858
aF0.8696783185005188
aF0.924299418926239
aF0.9778451323509216
aF1.0323612689971924
aF1.0878241062164307
aF1.1418200731277466
aF1.1963601112365723
aF1.250394582748413
aF1.3042223453521729
aF1.3577423095703125
aF1.4113850593566895
aF1.4659801721572876
aF1.519697904586792
aF1.5734243392944336
aF1.6289979219436646
aF1.6824308633804321
aF1.7359195947647095
aF1.7909395694732666
aF1.844603180885315
aF1.898114562034607
aF1.952594518661499
aF2.0064213275909424
aF2.0608608722686768
aF2.1149356365203857
aF2.168522357940674
aF2.22224760055542
aF2.2761683464050293
aF2.3297626972198486
aF2.3834939002990723
aF2.4369940757751465
aF2.4915735721588135
aF2.545097827911377
aF2.598632574081421
aF2.652219533920288
aF2.705946445465088
aF2.763338088989258
aF2.8172359466552734
aF2.8710951805114746
aF2.9248504638671875
aF2.9784328937530518
aF3.0333733558654785
aF3.0870563983917236
aF3.140989303588867
aF3.19478702545166
aF3.248682975769043
aF3.3033862113952637
aF3.3570947647094727
aF3.4107749462127686
aF3.4645183086395264
aF3.5182347297668457
aF3.590365409851074
aF3.6443891525268555
aF3.698105573654175
aF3.752112865447998
aF3.8057734966278076
aF3.86085844039917
aF3.9151690006256104
aF3.9689252376556396
aF4.022649765014648
aF4.07640266418457
aF4.130216121673584
aF4.183915138244629
aF4.237596035003662
aF4.291141510009766
aF4.344788074493408
aF4.398980140686035
aF4.45270299911499
aF4.506479263305664
aF4.561108589172363
aF4.61490535736084
aF4.668900489807129
aF4.722682476043701
aF4.7762579917907715
aF4.8304057121276855
aF4.88457727432251
aF4.938482761383057
aF4.992308139801025
aF5.050654888153076
aF5.104554176330566
aF5.158267974853516
aF5.2122416496276855
aF5.266067981719971
aF5.3197526931762695
aF5.373544216156006
aF5.427059650421143
aF5.48166561126709
aF5.535478591918945
aF5.589532375335693
aF5.643320083618164
aF5.697061538696289
aF5.750820159912109
aF5.804895401000977
aF5.859356880187988
aF5.91423225402832
aF5.96806526184082
aF6.02192497253418
aF6.0761213302612305
aF6.1298322677612305
aF6.183426380157471
aF6.23714017868042
aF6.290702819824219
aF6.344371795654297
aF6.399056434631348
aF6.452795028686523
aF6.506677627563477
aF6.560416221618652
aF6.614230155944824
aF6.668175220489502
aF6.722013473510742
aF6.775631904602051
aF6.830655097961426
aF6.884674072265625
aF6.938602447509766
aF6.992517471313477
aF7.046268939971924
aF7.099856376647949
aF7.153369903564453
aF7.207182884216309
aF7.260833263397217
aF7.315462589263916
aF7.369129657745361
aF7.422930717468262
aF7.476935386657715
aF7.530760765075684
aF7.584673881530762
aF7.638361930847168
aF7.692142963409424
aF7.746942043304443
aF7.801092624664307
aF7.855303764343262
aF7.909133434295654
aF7.962926864624023
aF8.016592025756836
aF8.070210456848145
aF8.123849868774414
aF8.191411018371582
aF8.245689392089844
aF8.29952335357666
aF8.354246139526367
aF8.408098220825195
aF8.461770057678223
aF8.515480041503906
aF8.569308280944824
aF8.622992515563965
aF8.677997589111328
aF8.731827735900879
aF8.785703659057617
aF8.839883804321289
aF8.893596649169922
aF8.94739055633545
aF9.001250267028809
aF9.054999351501465
aF9.108726501464844
aF9.162500381469727
aF9.216169357299805
aF9.269986152648926
aF9.323847770690918
aF9.37736988067627
aF9.431097984313965
aF9.484700202941895
aF9.538363456726074
aF9.592029571533203
aF9.645742416381836
aF9.699492454528809
aF9.753240585327148
aF9.807409286499023
aF9.861468315124512
aF9.915461540222168
aF9.96931266784668
aF10.022985458374023
aF10.076641082763672
aF10.130358695983887
aF10.184334754943848
aF10.238190650939941
aF10.291775703430176
aF10.345351219177246
aF10.399019241333008
aF10.452760696411133
aF10.506582260131836
aF10.560246467590332
aF10.613812446594238
aF10.675721168518066
aF10.729376792907715
aF10.783708572387695
aF10.83758544921875
aF10.891451835632324
aF10.945244789123535
aF10.999031066894531
aF11.052762031555176
aF11.106727600097656
aF11.160701751708984
aF11.214369773864746
aF11.26815414428711
aF11.321789741516113
aF11.375487327575684
aF11.43004322052002
aF11.483585357666016
aF11.537151336669922
aF11.590811729431152
aF11.644598960876465
aF11.69826889038086
aF11.752276420593262
aF11.806234359741211
aF11.86001968383789
aF11.91385555267334
aF11.967596054077148
aF12.021344184875488
aF12.07513427734375
aF12.12885856628418
aF12.182636260986328
aF12.237475395202637
aF12.291245460510254
aF12.344841003417969
aF12.39872932434082
aF12.452418327331543
aF12.506155967712402
aF12.559919357299805
aF12.613676071166992
aF12.667613983154297
aF12.721536636352539
aF12.775947570800781
aF12.829721450805664
aF12.883496284484863
aF12.9373779296875
aF12.992410659790039
aF13.046247482299805
aF13.099967956542969
aF13.153606414794922
aF13.207366943359375
aF13.260997772216797
aF13.314656257629395
aF13.368270874023438
aF13.422131538391113
aF13.475948333740234
aF13.529555320739746
aF13.583220481872559
aF13.636967658996582
aF13.690918922424316
aF13.745325088500977
aF13.8001127243042
aF13.853791236877441
aF13.907727241516113
aF13.961566925048828
aF14.015357971191406
aF14.068990707397461
aF14.122679710388184
aF14.176247596740723
aF14.229990005493164
aF14.283698081970215
aF14.337503433227539
aF14.391130447387695
aF14.444965362548828
aF14.498842239379883
aF14.553548812866211
aF14.607381820678711
aF14.661084175109863
aF14.715411186218262
aF14.769365310668945
aF14.8232421875
aF14.876890182495117
aF14.930425643920898
aF14.984148979187012
aF15.037668228149414
aF15.091224670410156
aF15.144903182983398
aF15.198654174804688
aF15.252326965332031
aF15.306366920471191
aF15.361047744750977
aF15.414712905883789
aF15.468525886535645
aF15.522302627563477
aF15.575948715209961
aF15.629755020141602
aF15.683988571166992
aF15.738243103027344
aF15.791958808898926
aF15.84567642211914
aF15.89933967590332
aF15.953010559082031
aF16.00682258605957
aF16.06060791015625
aF16.115217208862305
aF16.168792724609375
aF16.22276496887207
aF16.276670455932617
aF16.33063316345215
aF16.38449478149414
aF16.438365936279297
aF16.49222755432129
aF16.546100616455078
aF16.599674224853516
aF16.653762817382812
aF16.707778930664062
aF16.7613525390625
aF16.814998626708984
aF16.86857795715332
aF16.922574996948242
aF16.976503372192383
aF17.03015899658203
aF17.08382797241211
aF17.137516021728516
aF17.19267463684082
aF17.24750328063965
aF17.301231384277344
aF17.355113983154297
aF17.410432815551758
aF17.467403411865234
aF17.521121978759766
aF17.57533836364746
aF17.631305694580078
aF17.686159133911133
aF17.739910125732422
aF17.793764114379883
aF17.847442626953125
aF17.901123046875
aF17.954914093017578
aF18.008644104003906
aF18.062461853027344
aF18.116010665893555
aF18.169723510742188
aF18.223392486572266
aF18.27713966369629
aF18.330860137939453
aF18.385208129882812
aF18.444570541381836
aF18.504838943481445
aF18.56559944152832
aF18.622783660888672
aF18.686054229736328
aF18.744312286376953
aF18.798288345336914
aF18.85230827331543
aF18.90604019165039
aF18.959945678710938
aF19.01386260986328
aF19.067768096923828
aF19.121503829956055
aF19.175098419189453
aF19.230058670043945
aF19.28380584716797
aF19.337631225585938
aF19.39191246032715
aF19.445987701416016
aF19.499765396118164
aF19.55406379699707
aF19.609046936035156
aF19.663963317871094
aF19.719934463500977
aF19.773868560791016
aF19.827735900878906
aF19.881595611572266
aF19.935672760009766
aF19.98965835571289
aF20.04375457763672
aF20.097557067871094
aF20.15131950378418
aF20.20502471923828
aF20.258838653564453
aF20.312578201293945
aF20.3663272857666
aF20.419967651367188
aF20.473651885986328
aF20.52717399597168
aF20.581253051757812
aF20.635242462158203
aF20.689006805419922
aF20.742876052856445
aF20.797605514526367
aF20.85152244567871
aF20.90522003173828
aF20.958980560302734
aF21.012685775756836
aF21.06647491455078
aF21.12016487121582
aF21.173725128173828
aF21.22744369506836
aF21.281354904174805
aF21.33502769470215
aF21.38861846923828
aF21.442344665527344
aF21.496116638183594
aF21.550960540771484
aF21.605146408081055
aF21.65898895263672
aF21.712779998779297
aF21.76673698425293
aF21.820472717285156
aF21.874073028564453
aF21.92771339416504
aF21.981342315673828
aF22.0351619720459
aF22.088817596435547
aF22.142452239990234
aF22.196359634399414
aF22.249969482421875
aF22.303586959838867
aF22.358203887939453
aF22.411865234375
aF22.465513229370117
aF22.519296646118164
aF22.57344627380371
aF22.627248764038086
aF22.681047439575195
aF22.73475456237793
aF22.788509368896484
aF22.842140197753906
aF22.895721435546875
aF22.949325561523438
aF23.0030574798584
aF23.05666160583496
aF23.111074447631836
aF23.164888381958008
aF23.218547821044922
aF23.27239227294922
aF23.326257705688477
aF23.380142211914062
aF23.433929443359375
aF23.48794174194336
aF23.54227638244629
aF23.596168518066406
aF23.64996910095215
aF23.704395294189453
aF23.758363723754883
aF23.812211990356445
aF23.865982055664062
aF23.92063331604004
aF23.974151611328125
aF24.0278377532959
aF24.081844329833984
aF24.135547637939453
aF24.18916130065918
aF24.242822647094727
aF24.29660415649414
aF24.35040855407715
aF24.404224395751953
aF24.45779800415039
aF24.512168884277344
aF24.566516876220703
aF24.620182037353516
aF24.674762725830078
aF24.728437423706055
aF24.782127380371094
aF24.835880279541016
aF24.889894485473633
aF24.94375228881836
aF25.001771926879883
aF25.055675506591797
aF25.10995101928711
aF25.16370391845703
aF25.217506408691406
aF25.27137565612793
aF25.325197219848633
aF25.379995346069336
aF25.435768127441406
aF25.493532180786133
aF25.548471450805664
aF25.603017807006836
aF25.656957626342773
aF25.711074829101562
aF25.766733169555664
aF25.82071876525879
aF25.87516212463379
aF25.929691314697266
aF25.983158111572266
aF26.03660774230957
aF26.090063095092773
aF26.143503189086914
aF26.196945190429688
aF26.25135612487793
aF26.304685592651367
aF26.358257293701172
aF26.411640167236328
aF26.46812629699707
aF26.52237319946289
aF26.575897216796875
aF26.629575729370117
aF26.683231353759766
aF26.73681640625
aF26.790409088134766
aF26.84436798095703
aF26.898361206054688
aF26.95186424255371
aF27.00628662109375
asssI4
g1
(g2
tp111
Rp112
I30
g1
(g2
tp113
Rp114
I1
(lp115
F2.419999987068877e-07
aF0.023111892864108086
aF0.04755590856075287
aF0.07089459896087646
aF0.09572140127420425
aF0.1191425621509552
aF0.14219515025615692
aF0.16755670309066772
aF0.19116973876953125
aF0.21662390232086182
aF0.2409866601228714
aF0.2659408450126648
aF0.29032158851623535
aF0.31437575817108154
aF0.33851179480552673
aF0.3619728684425354
aF0.38643014430999756
aF0.40982377529144287
aF0.43269070982933044
aF0.4575522243976593
aF0.48120224475860596
aF0.5055208206176758
aF0.5310671329498291
aF0.5551281571388245
aF0.5810023546218872
aF0.6048473119735718
aF0.6304147839546204
aF0.6538181304931641
aF0.6784441471099854
aF0.7022868394851685
aF0.7257478833198547
aF0.7510031461715698
aF0.7746884822845459
aF0.8002851605415344
aF0.8238138556480408
aF0.8489863872528076
aF0.8728533387184143
aF0.8960267305374146
aF0.9207373857498169
aF0.9441578388214111
aF0.9692661762237549
aF0.9934815764427185
aF1.0168870687484741
aF1.04228675365448
aF1.0654973983764648
aF1.090964674949646
aF1.1146091222763062
aF1.1402044296264648
aF1.163965106010437
aF1.189167857170105
aF1.2130494117736816
aF1.236452579498291
aF1.2621372938156128
aF1.285581350326538
aF1.3101487159729004
aF1.334293007850647
aF1.357773780822754
aF1.383104920387268
aF1.4068125486373901
aF1.4318565130233765
aF1.4557452201843262
aF1.4808385372161865
aF1.5045989751815796
aF1.5277165174484253
aF1.5527514219284058
aF1.5760334730148315
aF1.600296974182129
aF1.6259071826934814
aF1.6499724388122559
aF1.6759568452835083
aF1.6998658180236816
aF1.7259283065795898
aF1.749922752380371
aF1.7758055925369263
aF1.7994076013565063
aF1.8246080875396729
aF1.8480916023254395
aF1.8719182014465332
aF1.896515130996704
aF1.9199100732803345
aF1.9442918300628662
aF1.9682867527008057
aF1.9914028644561768
aF2.016270399093628
aF2.0398292541503906
aF2.06432843208313
aF2.0882890224456787
aF2.1119017601013184
aF2.1370601654052734
aF2.160468578338623
aF2.1861438751220703
aF2.209868907928467
aF2.2346529960632324
aF2.258476495742798
aF2.281590461730957
aF2.3067145347595215
aF2.3303160667419434
aF2.355402946472168
aF2.3793423175811768
aF2.4023759365081787
aF2.427111864089966
aF2.4505157470703125
aF2.475632429122925
aF2.498981237411499
aF2.522897243499756
aF2.548823595046997
aF2.57297682762146
aF2.5989458560943604
aF2.622600555419922
aF2.647693395614624
aF2.671405792236328
aF2.6963601112365723
aF2.7198450565338135
aF2.742783546447754
aF2.7679195404052734
aF2.7914865016937256
aF2.8161115646362305
aF2.8412225246429443
aF2.8654112815856934
aF2.890838146209717
aF2.914397954940796
aF2.939739465713501
aF2.963245391845703
aF2.9884281158447266
aF3.0126922130584717
aF3.0361173152923584
aF3.0615508556365967
aF3.084866762161255
aF3.1098830699920654
aF3.133225440979004
aF3.1565754413604736
aF3.1821365356445312
aF3.20583176612854
aF3.2313053607940674
aF3.254990577697754
aF3.2806179523468018
aF3.3045177459716797
aF3.3280231952667236
aF3.353238344192505
aF3.3767104148864746
aF3.402496814727783
aF3.4264371395111084
aF3.4517414569854736
aF3.476041316986084
aF3.498958110809326
aF3.5236968994140625
aF3.5472073554992676
aF3.5725059509277344
aF3.596179962158203
aF3.6203060150146484
aF3.6451778411865234
aF3.669105052947998
aF3.6948368549346924
aF3.7185893058776855
aF3.744135856628418
aF3.7679808139801025
aF3.7934720516204834
aF3.8174889087677
aF3.8419880867004395
aF3.86763858795166
aF3.8912782669067383
aF3.9171648025512695
aF3.9411590099334717
aF3.967179536819458
aF3.990769386291504
aF4.016124248504639
aF4.039857387542725
aF4.064975738525391
aF4.089141845703125
aF4.113716125488281
aF4.1391682624816895
aF4.162557601928711
aF4.188274383544922
aF4.212045669555664
aF4.23709774017334
aF4.26108455657959
aF4.284386157989502
aF4.310001850128174
aF4.333209991455078
aF4.358504772186279
aF4.382211685180664
aF4.406350135803223
aF4.431521892547607
aF4.455296516418457
aF4.4808759689331055
aF4.5043511390686035
aF4.5294108390808105
aF4.553356170654297
aF4.578417778015137
aF4.602059364318848
aF4.625950336456299
aF4.651657581329346
aF4.6754350662231445
aF4.700545787811279
aF4.724117279052734
aF4.747585296630859
aF4.773195743560791
aF4.797438621520996
aF4.822819709777832
aF4.846316337585449
aF4.871168613433838
aF4.895333290100098
aF4.918922424316406
aF4.944419860839844
aF4.968524932861328
aF4.994540691375732
aF5.019063949584961
aF5.043479919433594
aF5.066371917724609
aF5.09112024307251
aF5.114561080932617
aF5.138362884521484
aF5.163695335388184
aF5.187369346618652
aF5.212370872497559
aF5.235944747924805
aF5.260594367980957
aF5.286041736602783
aF5.310269355773926
aF5.335859775543213
aF5.3597869873046875
aF5.385799884796143
aF5.409460544586182
aF5.434808254241943
aF5.458177089691162
aF5.482328414916992
aF5.508021354675293
aF5.532101154327393
aF5.557975769042969
aF5.581673622131348
aF5.607176780700684
aF5.630802154541016
aF5.655707359313965
aF5.679675579071045
aF5.703068256378174
aF5.728198051452637
aF5.751614570617676
aF5.777102947235107
aF5.8006272315979
aF5.82462739944458
aF5.850286960601807
aF5.874297142028809
aF5.900041580200195
aF5.92361307144165
aF5.948927879333496
aF5.973172187805176
aF5.997692584991455
aF6.021288871765137
aF6.044082164764404
aF6.068875312805176
aF6.0922675132751465
aF6.1176347732543945
aF6.1419758796691895
aF6.166050910949707
aF6.1912078857421875
aF6.215365409851074
aF6.241410255432129
aF6.266005992889404
aF6.2916035652160645
aF6.315480709075928
aF6.34158992767334
aF6.365074157714844
aF6.389850616455078
aF6.413670539855957
aF6.437045097351074
aF6.462508201599121
aF6.486105442047119
aF6.511292934417725
aF6.534999847412109
aF6.559056282043457
aF6.584173202514648
aF6.6083083152771
aF6.634020805358887
aF6.657923698425293
aF6.683669567108154
aF6.706936359405518
aF6.732557773590088
aF6.756372928619385
aF6.7821245193481445
aF6.806119918823242
aF6.830915451049805
aF6.854747772216797
aF6.877529144287109
aF6.902496814727783
aF6.926313400268555
aF6.951072692871094
aF6.975076198577881
aF6.998590469360352
aF7.023966312408447
aF7.047244071960449
aF7.072011947631836
aF7.095574378967285
aF7.119143962860107
aF7.144485950469971
aF7.1683244705200195
aF7.194204807281494
aF7.218125343322754
aF7.243933200836182
aF7.267618179321289
aF7.292736053466797
aF7.316799163818359
aF7.342068672180176
aF7.365413665771484
aF7.389058589935303
aF7.414388656616211
aF7.437853813171387
aF7.463441848754883
aF7.487089157104492
aF7.511135101318359
aF7.536484718322754
aF7.560394287109375
aF7.5864129066467285
aF7.610742568969727
aF7.636660575866699
aF7.661735534667969
aF7.686410427093506
aF7.709795951843262
aF7.735346794128418
aF7.758816242218018
aF7.783504486083984
aF7.807713508605957
aF7.830816268920898
aF7.855454444885254
aF7.878804683685303
aF7.903616905212402
aF7.927068710327148
aF7.950733184814453
aF7.976184844970703
aF7.999722957611084
aF8.025014877319336
aF8.049056053161621
aF8.07418441772461
aF8.097850799560547
aF8.120950698852539
aF8.1456937789917
aF8.168832778930664
aF8.191291809082031
aF8.214292526245117
aF8.2377290725708
aF8.260940551757812
aF8.284187316894531
aF8.307150840759277
aF8.32966423034668
aF8.351831436157227
aF8.374540328979492
aF8.39781379699707
aF8.420927047729492
aF8.443678855895996
aF8.466741561889648
aF8.489161491394043
aF8.511689186096191
aF8.534177780151367
aF8.557726860046387
aF8.581416130065918
aF8.604848861694336
aF8.627799987792969
aF8.650466918945312
aF8.67304515838623
aF8.695558547973633
aF8.718705177307129
aF8.742097854614258
aF8.765559196472168
aF8.788629531860352
aF8.811328887939453
aF8.833857536315918
aF8.856551170349121
aF8.87979793548584
aF8.90298843383789
aF8.92648696899414
aF8.949528694152832
aF8.971630096435547
aF8.99417781829834
aF9.016494750976562
aF9.039077758789062
aF9.062143325805664
aF9.085148811340332
aF9.108199119567871
aF9.13196086883545
aF9.154817581176758
aF9.177358627319336
aF9.200433731079102
aF9.223747253417969
aF9.246747970581055
aF9.269455909729004
aF9.292448043823242
aF9.315383911132812
aF9.337894439697266
aF9.360490798950195
aF9.383533477783203
aF9.406249046325684
aF9.429218292236328
aF9.45234489440918
aF9.47463607788086
aF9.496994018554688
aF9.519814491271973
aF9.542163848876953
aF9.564780235290527
aF9.587822914123535
aF9.610926628112793
aF9.63417911529541
aF9.656376838684082
aF9.67850399017334
aF9.701173782348633
aF9.723688125610352
aF9.746613502502441
aF9.770112991333008
aF9.793600082397461
aF9.816811561584473
aF9.839774131774902
aF9.86251163482666
aF9.886120796203613
aF9.909337997436523
aF9.93256664276123
aF9.955633163452148
aF9.978059768676758
aF10.000645637512207
aF10.023231506347656
aF10.046426773071289
aF10.069562911987305
aF10.093109130859375
aF10.116291046142578
aF10.138375282287598
aF10.160965919494629
aF10.183540344238281
aF10.206757545471191
aF10.229552268981934
aF10.252561569213867
aF10.275616645812988
aF10.298721313476562
aF10.321640014648438
aF10.34383773803711
aF10.366656303405762
aF10.389683723449707
aF10.41276741027832
aF10.435983657836914
aF10.458778381347656
aF10.481568336486816
aF10.503945350646973
aF10.526515007019043
aF10.54965877532959
aF10.57249641418457
aF10.595550537109375
aF10.618793487548828
aF10.641876220703125
aF10.664084434509277
aF10.68656063079834
aF10.709178924560547
aF10.732099533081055
aF10.755281448364258
aF10.778175354003906
aF10.801307678222656
aF10.823760986328125
aF10.846328735351562
aF10.868974685668945
aF10.891837120056152
aF10.915410995483398
aF10.938831329345703
aF10.961750030517578
aF10.984326362609863
aF11.006664276123047
aF11.029457092285156
aF11.052094459533691
aF11.074898719787598
aF11.097969055175781
aF11.120762825012207
aF11.143651962280273
aF11.166787147521973
aF11.18889045715332
aF11.211227416992188
aF11.234003067016602
aF11.257170677185059
aF11.280608177185059
aF11.304177284240723
aF11.327276229858398
aF11.349353790283203
aF11.37183952331543
aF11.394196510314941
aF11.416945457458496
aF11.439899444580078
aF11.462763786315918
aF11.485878944396973
aF11.509096145629883
aF11.532243728637695
aF11.554715156555176
aF11.577360153198242
aF11.60085391998291
aF11.624083518981934
aF11.64711856842041
aF11.670117378234863
aF11.69310474395752
aF11.71568489074707
aF11.7381591796875
aF11.761292457580566
aF11.784412384033203
aF11.807828903198242
aF11.830864906311035
aF11.853368759155273
aF11.875701904296875
aF11.898445129394531
aF11.921676635742188
assssssg27
g1
(g2
tp116
Rp117
I500
g1
(g2
tp118
Rp119
I80000
g1
(g2
tp120
Rp121
I8
g1
(g2
tp122
Rp123
I30
g1
(g2
tp124
Rp125
I1
(lp126
F3.419999927700701e-07
aF0.0152309350669384
aF0.026929054409265518
aF0.03875550627708435
aF0.04827176779508591
aF0.06150998920202255
aF0.07328907400369644
aF0.08416394889354706
aF0.09729015827178955
aF0.10877244174480438
aF0.12091319262981415
aF0.13288158178329468
aF0.14224225282669067
aF0.15528693795204163
aF0.16739241778850555
aF0.1770496517419815
aF0.19005510210990906
aF0.20184379816055298
aF0.21247489750385284
aF0.22547131776809692
aF0.23677818477153778
aF0.2483130395412445
aF0.2612696886062622
aF0.2725072205066681
aF0.28539592027664185
aF0.2969985902309418
aF0.30820536613464355
aF0.321474552154541
aF0.332800030708313
aF0.34488800168037415
aF0.3580318093299866
aF0.3678049147129059
aF0.3809809684753418
aF0.39290666580200195
aF0.4040950536727905
aF0.41713833808898926
aF0.42851918935775757
aF0.44136738777160645
aF0.4528776705265045
aF0.46328017115592957
aF0.47622084617614746
aF0.48783445358276367
aF0.49917155504226685
aF0.5121148228645325
aF0.5239323973655701
aF0.5367931723594666
aF0.5483154058456421
aF0.5589582920074463
aF0.5718817710876465
aF0.5831478238105774
aF0.5943684577941895
aF0.6074045300483704
aF0.6187030673027039
aF0.6306111812591553
aF0.6435279846191406
aF0.6533798575401306
aF0.6663024425506592
aF0.6778625249862671
aF0.6881435513496399
aF0.7011138200759888
aF0.7128982543945312
aF0.7242064476013184
aF0.7370843887329102
aF0.7483639717102051
aF0.7603871822357178
aF0.7730875015258789
aF0.7829529643058777
aF0.7959198951721191
aF0.8077968955039978
aF0.8182202577590942
aF0.8312370181083679
aF0.8425885438919067
aF0.8539109826087952
aF0.869421124458313
aF0.8799724578857422
aF0.8928020000457764
aF0.9044015407562256
aF0.9169954657554626
aF0.9288569688796997
aF0.9391130805015564
aF0.9521676898002625
aF0.9635579586029053
aF0.9738388061523438
aF0.9867914915084839
aF0.9981892108917236
aF1.008603811264038
aF1.0214152336120605
aF1.0327329635620117
aF1.0437414646148682
aF1.0566749572753906
aF1.068084955215454
aF1.0801259279251099
aF1.0929784774780273
aF1.1026349067687988
aF1.1155807971954346
aF1.127297282218933
aF1.137400507926941
aF1.1503078937530518
aF1.1621456146240234
aF1.1732643842697144
aF1.1862633228302002
aF1.198161244392395
aF1.2107689380645752
aF1.2225580215454102
aF1.2337831258773804
aF1.246716856956482
aF1.258252739906311
aF1.2701739072799683
aF1.28226637840271
aF1.2934223413467407
aF1.306638479232788
aF1.3179130554199219
aF1.329573631286621
aF1.342461347579956
aF1.3535006046295166
aF1.365453839302063
aF1.3784003257751465
aF1.3880953788757324
aF1.401131510734558
aF1.4126169681549072
aF1.4229302406311035
aF1.43589448928833
aF1.4477617740631104
aF1.459123134613037
aF1.4720568656921387
aF1.483112096786499
aF1.4949877262115479
aF1.507962942123413
aF1.5177727937698364
aF1.530733346939087
aF1.54248046875
aF1.553208827972412
aF1.5660967826843262
aF1.577413558959961
aF1.5881474018096924
aF1.601081132888794
aF1.6122877597808838
aF1.6238911151885986
aF1.6367838382720947
aF1.6483850479125977
aF1.660914659500122
aF1.6724134683609009
aF1.6824162006378174
aF1.6953768730163574
aF1.706810474395752
aF1.7172414064407349
aF1.7301487922668457
aF1.7416250705718994
aF1.7531626224517822
aF1.7664035558700562
aF1.7783703804016113
aF1.791488528251648
aF1.8027012348175049
aF1.8137762546539307
aF1.8267316818237305
aF1.8378479480743408
aF1.849665880203247
aF1.8626646995544434
aF1.8742671012878418
aF1.8873441219329834
aF1.8984756469726562
aF1.909770131111145
aF1.9226906299591064
aF1.934273362159729
aF1.9473435878753662
aF1.9588220119476318
aF1.970144271850586
aF1.9831687211990356
aF1.9946093559265137
aF2.0066757202148438
aF2.0190086364746094
aF2.0286083221435547
aF2.041757583618164
aF2.053645610809326
aF2.064051866531372
aF2.0770745277404785
aF2.0889618396759033
aF2.1004955768585205
aF2.113513469696045
aF2.1250126361846924
aF2.137815237045288
aF2.149458408355713
aF2.160327911376953
aF2.173388957977295
aF2.184896469116211
aF2.1966474056243896
aF2.209707260131836
aF2.2217326164245605
aF2.2350337505340576
aF2.2461307048797607
aF2.2576401233673096
aF2.270590305328369
aF2.282177448272705
aF2.2950172424316406
aF2.3065388202667236
aF2.3173294067382812
aF2.3302650451660156
aF2.341475486755371
aF2.35276460647583
aF2.365713357925415
aF2.3768625259399414
aF2.3886096477508545
aF2.4015696048736572
aF2.4110565185546875
aF2.424002170562744
aF2.436133861541748
aF2.446204662322998
aF2.459136962890625
aF2.4709384441375732
aF2.4817516803741455
aF2.4946818351745605
aF2.5058441162109375
aF2.517648696899414
aF2.530581474304199
aF2.5427658557891846
aF2.558107376098633
aF2.5683417320251465
aF2.581320285797119
aF2.592749834060669
aF2.6037704944610596
aF2.616727352142334
aF2.6280288696289062
aF2.6400961875915527
aF2.6532437801361084
aF2.663325309753418
aF2.6762847900390625
aF2.688204288482666
aF2.69931697845459
aF2.7123990058898926
aF2.7237696647644043
aF2.7356700897216797
aF2.7502803802490234
aF2.7610859870910645
aF2.77400803565979
aF2.7851243019104004
aF2.7971653938293457
aF2.8099985122680664
aF2.819728374481201
aF2.832735538482666
aF2.8446204662323
aF2.855271339416504
aF2.8681793212890625
aF2.8793601989746094
aF2.8903141021728516
aF2.9032468795776367
aF2.914466381072998
aF2.926450252532959
aF2.939500570297241
aF2.9491729736328125
aF2.9620909690856934
aF2.9740614891052246
aF2.9841980934143066
aF2.9973177909851074
aF3.009087324142456
aF3.020089626312256
aF3.032985210418701
aF3.0443129539489746
aF3.056401252746582
aF3.069270133972168
aF3.079214334487915
aF3.0922210216522217
aF3.104022741317749
aF3.1146819591522217
aF3.127558708190918
aF3.138700246810913
aF3.1502366065979004
aF3.163130760192871
aF3.1743650436401367
aF3.18681001663208
aF3.1990723609924316
aF3.2091033458709717
aF3.222071647644043
aF3.2336010932922363
aF3.244143486022949
aF3.257014513015747
aF3.268380641937256
aF3.279529333114624
aF3.292513370513916
aF3.3037400245666504
aF3.3158140182495117
aF3.3288865089416504
aF3.338761329650879
aF3.3517231941223145
aF3.363274097442627
aF3.3734567165374756
aF3.3863534927368164
aF3.398015260696411
aF3.408576488494873
aF3.4215776920318604
aF3.432797431945801
aF3.443915605545044
aF3.45705509185791
aF3.4686145782470703
aF3.4810314178466797
aF3.49312424659729
aF3.503267526626587
aF3.516289234161377
aF3.5276737213134766
aF3.539156913757324
aF3.5524706840515137
aF3.563563346862793
aF3.5757484436035156
aF3.5888400077819824
aF3.5984973907470703
aF3.611598491668701
aF3.6234688758850098
aF3.633906364440918
aF3.6469759941101074
aF3.658273220062256
aF3.6684341430664062
aF3.6812825202941895
aF3.693082809448242
aF3.7047512531280518
aF3.7177114486694336
aF3.7291641235351562
aF3.742058277130127
aF3.7536885738372803
aF3.764852285385132
aF3.7778899669647217
aF3.788792848587036
aF3.800684928894043
aF3.8137636184692383
aF3.8230104446411133
aF3.8359971046447754
aF3.84865403175354
aF3.8582258224487305
aF3.871407985687256
aF3.8829269409179688
aF3.8941214084625244
aF3.9073009490966797
aF3.918485641479492
aF3.9299707412719727
aF3.942897081375122
aF3.954566717147827
aF3.9676969051361084
aF3.9790701866149902
aF3.9905781745910645
aF4.003742694854736
aF4.015575408935547
aF4.02865743637085
aF4.040937423706055
aF4.0522565841674805
aF4.065284729003906
aF4.076921463012695
aF4.090205192565918
aF4.102313995361328
aF4.114346981048584
aF4.127338409423828
aF4.136963367462158
aF4.1499433517456055
aF4.1612396240234375
aF4.171929836273193
aF4.182131290435791
aF4.193056106567383
aF4.204174518585205
aF4.215100288391113
aF4.225862503051758
aF4.237615585327148
aF4.248498916625977
aF4.259625434875488
aF4.270288467407227
aF4.2813920974731445
aF4.2923264503479
aF4.30333948135376
aF4.314141273498535
aF4.324892997741699
aF4.335754871368408
aF4.345955848693848
aF4.356977462768555
aF4.367945194244385
aF4.37877082824707
aF4.39044713973999
aF4.401423454284668
aF4.412270545959473
aF4.4217119216918945
aF4.432651519775391
aF4.443718433380127
aF4.45461368560791
aF4.465446949005127
aF4.47645378112793
aF4.4874444007873535
aF4.498072624206543
aF4.509167671203613
aF4.519774436950684
aF4.530786514282227
aF4.5418009757995605
aF4.552790641784668
aF4.563632488250732
aF4.574485778808594
aF4.585144519805908
aF4.59510612487793
aF4.606093883514404
aF4.616949558258057
aF4.627758026123047
aF4.638702869415283
aF4.649580001831055
aF4.66043758392334
aF4.671652317047119
aF4.681320667266846
aF4.692134857177734
aF4.70311975479126
aF4.713918685913086
aF4.72465705871582
aF4.735629558563232
aF4.74649715423584
aF4.757028102874756
aF4.768189907073975
aF4.7784318923950195
aF4.789227485656738
aF4.800144195556641
aF4.81085729598999
aF4.822126865386963
aF4.832970142364502
aF4.843617916107178
aF4.854558944702148
aF4.864885330200195
aF4.876044273376465
aF4.887282371520996
aF4.898260593414307
aF4.909049987792969
aF4.919859409332275
aF4.930493354797363
aF4.9403839111328125
aF4.9514546394348145
aF4.962495803833008
aF4.973329067230225
aF4.984281539916992
aF4.99516487121582
aF5.005783557891846
aF5.016939163208008
aF5.026407241821289
aF5.037210941314697
aF5.048349857330322
aF5.059412956237793
aF5.070305347442627
aF5.081282615661621
aF5.092095375061035
aF5.1025190353393555
aF5.113291263580322
aF5.123602867126465
aF5.134396076202393
aF5.1454267501831055
aF5.156276702880859
aF5.167871475219727
aF5.179197788238525
aF5.189851760864258
aF5.199378490447998
aF5.2108306884765625
aF5.221809387207031
aF5.232934951782227
aF5.243795394897461
aF5.254656791687012
aF5.265439033508301
aF5.2762041091918945
aF5.286092758178711
aF5.297211170196533
aF5.308441162109375
aF5.319425106048584
aF5.330616474151611
aF5.341568946838379
aF5.352336883544922
aF5.363232612609863
aF5.373017311096191
aF5.383827209472656
aF5.394829750061035
aF5.405755519866943
aF5.416536331176758
aF5.427637100219727
aF5.438317775726318
aF5.449237823486328
aF5.4597554206848145
aF5.4707489013671875
aF5.481997489929199
aF5.493348598480225
aF5.504243850708008
aF5.515087127685547
aF5.525822162628174
aF5.535341262817383
aF5.54693078994751
aF5.557957649230957
aF5.568855285644531
aF5.5798258781433105
aF5.590673923492432
aF5.601325988769531
aF5.6121907234191895
aF5.621880531311035
aF5.632907867431641
aF5.64394998550415
aF5.655033588409424
aF5.665879726409912
aF5.676955223083496
aF5.687765598297119
aF5.698602199554443
aF5.707944393157959
aF5.719014644622803
aF5.730019569396973
aF5.74107551574707
aF5.751909255981445
aF5.762991428375244
aF5.773883819580078
asssI1
g1
(g2
tp127
Rp128
I30
g1
(g2
tp129
Rp130
I1
(lp131
F2.410000092822884e-07
aF0.04960178583860397
aF0.09958157688379288
aF0.1474178284406662
aF0.19568170607089996
aF0.24513234198093414
aF0.29385384917259216
aF0.3422277867794037
aF0.38964083790779114
aF0.4396515488624573
aF0.4891538918018341
aF0.5379777550697327
aF0.5858873128890991
aF0.6366349458694458
aF0.683993935585022
aF0.7330487370491028
aF0.7805711627006531
aF0.8289811611175537
aF0.8764266967773438
aF0.9249411225318909
aF0.9724869132041931
aF1.0234057903289795
aF1.0715659856796265
aF1.11895751953125
aF1.166286826133728
aF1.2135157585144043
aF1.2609361410140991
aF1.308638095855713
aF1.3574007749557495
aF1.4048144817352295
aF1.452288269996643
aF1.5021833181381226
aF1.5495965480804443
aF1.5967636108398438
aF1.6458470821380615
aF1.6935455799102783
aF1.7409791946411133
aF1.8043783903121948
aF1.8525819778442383
aF1.899855375289917
aF1.9480772018432617
aF1.9960485696792603
aF2.04347562789917
aF2.0906379222869873
aF2.1380155086517334
aF2.1853413581848145
aF2.2324113845825195
aF2.279611110687256
aF2.3270556926727295
aF2.375516414642334
aF2.4229722023010254
aF2.4703617095947266
aF2.5176355838775635
aF2.5648679733276367
aF2.6121773719787598
aF2.662848472595215
aF2.710170030593872
aF2.7573413848876953
aF2.8045413494110107
aF2.8528995513916016
aF2.9002254009246826
aF2.9481992721557617
aF2.9958622455596924
aF3.0432441234588623
aF3.090630531311035
aF3.137666702270508
aF3.1860876083374023
aF3.2334232330322266
aF3.280656337738037
aF3.3280322551727295
aF3.375274658203125
aF3.422506809234619
aF3.4707696437835693
aF3.5178935527801514
aF3.5652129650115967
aF3.612496852874756
aF3.6595311164855957
aF3.7237606048583984
aF3.77156400680542
aF3.8185558319091797
aF3.865709066390991
aF3.913588523864746
aF3.9610137939453125
aF4.008726596832275
aF4.055902004241943
aF4.103191375732422
aF4.150306701660156
aF4.197657585144043
aF4.245402812957764
aF4.2926154136657715
aF4.340036392211914
aF4.387341499328613
aF4.434765815734863
aF4.481916427612305
aF4.529314041137695
aF4.576632499694824
aF4.623854637145996
aF4.670958518981934
aF4.719541072845459
aF4.766901016235352
aF4.814030647277832
aF4.861335754394531
aF4.90908145904541
aF4.956571102142334
aF5.003900051116943
aF5.051536560058594
aF5.098947525024414
aF5.151688098907471
aF5.19903039932251
aF5.246156692504883
aF5.293508052825928
aF5.341036796569824
aF5.388449192047119
aF5.435724258422852
aF5.483046531677246
aF5.530303478240967
aF5.577328681945801
aF5.6259331703186035
aF5.67311954498291
aF5.720277786254883
aF5.767359256744385
aF5.814914226531982
aF5.862785339355469
aF5.910055160522461
aF5.957231521606445
aF6.004349708557129
aF6.0529303550720215
aF6.099896430969238
aF6.147197723388672
aF6.194632053375244
aF6.241906642913818
aF6.289096355438232
aF6.336241722106934
aF6.383496284484863
aF6.430629253387451
aF6.477818965911865
aF6.525566577911377
aF6.572852611541748
aF6.620172500610352
aF6.667529106140137
aF6.714977741241455
aF6.7622270584106445
aF6.810128688812256
aF6.857614040374756
aF6.905037879943848
aF6.953433990478516
aF7.000862121582031
aF7.048076152801514
aF7.0955119132995605
aF7.142738342285156
aF7.189966201782227
aF7.237354278564453
aF7.2846574783325195
aF7.331725120544434
aF7.379721641540527
aF7.427314281463623
aF7.474584579467773
aF7.521764278411865
aF7.569005966186523
aF7.6163716316223145
aF7.663748264312744
aF7.711106777191162
aF7.758594036102295
aF7.805844306945801
aF7.853978157043457
aF7.9015212059021
aF7.948966026306152
aF7.996373653411865
aF8.043516159057617
aF8.090819358825684
aF8.138737678527832
aF8.185928344726562
aF8.23320198059082
aF8.281638145446777
aF8.329116821289062
aF8.376294136047363
aF8.423702239990234
aF8.471248626708984
aF8.51858901977539
aF8.565791130065918
aF8.613182067871094
aF8.660701751708984
aF8.7081880569458
aF8.75667667388916
aF8.804204940795898
aF8.851698875427246
aF8.898927688598633
aF8.946087837219238
aF8.993590354919434
aF9.04086971282959
aF9.088034629821777
aF9.135242462158203
aF9.183699607849121
aF9.23082160949707
aF9.278111457824707
aF9.325308799743652
aF9.372551918029785
aF9.419699668884277
aF9.466894149780273
aF9.514073371887207
aF9.561166763305664
aF9.608048439025879
aF9.65647029876709
aF9.70388126373291
aF9.751080513000488
aF9.79816722869873
aF9.845649719238281
aF9.892980575561523
aF9.940299987792969
aF9.987605094909668
aF10.034988403320312
aF10.095440864562988
aF10.14326286315918
aF10.190614700317383
aF10.237863540649414
aF10.285272598266602
aF10.332493782043457
aF10.37960147857666
aF10.426843643188477
aF10.473963737487793
aF10.521543502807617
aF10.568689346313477
aF10.615812301635742
aF10.66310977935791
aF10.710153579711914
aF10.75732421875
aF10.804390907287598
aF10.851463317871094
aF10.898322105407715
aF10.9453706741333
aF10.992578506469727
aF11.039726257324219
aF11.087076187133789
aF11.134201049804688
aF11.181397438049316
aF11.228314399719238
aF11.275368690490723
aF11.322574615478516
aF11.369597434997559
aF11.416741371154785
aF11.463993072509766
aF11.511198043823242
aF11.558244705200195
aF11.60534381866455
aF11.6525297164917
aF11.699748992919922
aF11.748221397399902
aF11.79545783996582
aF11.84276294708252
aF11.889703750610352
aF11.936965942382812
aF11.985254287719727
aF12.03256893157959
aF12.079638481140137
aF12.127039909362793
aF12.174237251281738
aF12.221342086791992
aF12.268430709838867
aF12.315693855285645
aF12.36300277709961
aF12.409996032714844
aF12.45745849609375
aF12.50475025177002
aF12.55273151397705
aF12.600034713745117
aF12.647319793701172
aF12.69459342956543
aF12.741948127746582
aF12.789053916931152
aF12.836343765258789
aF12.883736610412598
aF12.930953025817871
aF12.977898597717285
aF13.0252103805542
aF13.072382926940918
aF13.11961841583252
aF13.166934967041016
aF13.214437484741211
aF13.261698722839355
aF13.309881210327148
aF13.357422828674316
aF13.404862403869629
aF13.451997756958008
aF13.499336242675781
aF13.546764373779297
aF13.594145774841309
aF13.641345024108887
aF13.688697814941406
aF13.736166954040527
aF13.78350830078125
aF13.83088493347168
aF13.878270149230957
aF13.925640106201172
aF13.972806930541992
aF14.019868850708008
aF14.06809139251709
aF14.115533828735352
aF14.162897109985352
aF14.210002899169922
aF14.257166862487793
aF14.30422592163086
aF14.351212501525879
aF14.398381233215332
aF14.445691108703613
aF14.492979049682617
aF14.54018783569336
aF14.587408065795898
aF14.634549140930176
aF14.681495666503906
aF14.728852272033691
aF14.77622127532959
aF14.82468318939209
aF14.871858596801758
aF14.919112205505371
aF14.96635627746582
aF15.013404846191406
aF15.060559272766113
aF15.10784912109375
aF15.15507984161377
aF15.202348709106445
aF15.249547004699707
aF15.2967529296875
aF15.343807220458984
aF15.391007423400879
aF15.440643310546875
aF15.488027572631836
aF15.534981727600098
aF15.582803726196289
aF15.630073547363281
aF15.677467346191406
aF15.724544525146484
aF15.771745681762695
aF15.818854331970215
aF15.865779876708984
aF15.912664413452148
aF15.959707260131836
aF16.00685691833496
aF16.05392074584961
aF16.101318359375
aF16.148611068725586
aF16.195541381835938
aF16.242515563964844
aF16.28958511352539
aF16.336769104003906
aF16.384918212890625
aF16.432218551635742
aF16.479772567749023
aF16.526866912841797
aF16.57411003112793
aF16.62118148803711
aF16.66852378845215
aF16.716144561767578
aF16.763568878173828
aF16.81146812438965
aF16.85871696472168
aF16.905757904052734
aF16.95313262939453
aF17.000568389892578
aF17.047807693481445
aF17.094938278198242
aF17.143177032470703
aF17.192337036132812
aF17.244068145751953
aF17.294321060180664
aF17.34151268005371
aF17.388967514038086
aF17.43644142150879
aF17.483747482299805
aF17.530929565429688
aF17.578182220458984
aF17.625234603881836
aF17.672142028808594
aF17.719322204589844
aF17.76667594909668
aF17.81389617919922
aF17.860923767089844
aF17.909343719482422
aF17.956396102905273
aF18.003215789794922
aF18.050554275512695
aF18.097820281982422
aF18.14512062072754
aF18.1923828125
aF18.239582061767578
aF18.286888122558594
aF18.33408546447754
aF18.38141441345215
aF18.428749084472656
aF18.475908279418945
aF18.52299690246582
aF18.570114135742188
aF18.617408752441406
aF18.665203094482422
aF18.71240997314453
aF18.759742736816406
aF18.807113647460938
aF18.854320526123047
aF18.901464462280273
aF18.94873046875
aF18.996198654174805
aF19.043306350708008
aF19.090576171875
aF19.13784408569336
aF19.18484878540039
aF19.231849670410156
aF19.279006958007812
aF19.326005935668945
aF19.372779846191406
aF19.419857025146484
aF19.46819496154785
aF19.515283584594727
aF19.562387466430664
aF19.60961151123047
aF19.656620025634766
aF19.703449249267578
aF19.75065803527832
aF19.797962188720703
aF19.84508514404297
aF19.892173767089844
aF19.939420700073242
aF19.986717224121094
aF20.03369140625
aF20.080799102783203
aF20.128110885620117
aF20.1752986907959
aF20.22355079650879
aF20.270828247070312
aF20.31817054748535
aF20.365285873413086
aF20.412485122680664
aF20.45990753173828
aF20.50722885131836
aF20.554346084594727
aF20.601688385009766
aF20.648988723754883
aF20.696229934692383
aF20.743240356445312
aF20.790603637695312
aF20.839611053466797
aF20.887882232666016
aF20.934804916381836
aF20.98309326171875
aF21.030359268188477
aF21.077478408813477
aF21.127456665039062
aF21.17470359802246
aF21.222105026245117
aF21.269311904907227
aF21.316635131835938
aF21.363853454589844
aF21.411014556884766
aF21.458023071289062
aF21.505142211914062
aF21.552427291870117
aF21.599651336669922
aF21.64700698852539
aF21.694337844848633
aF21.742090225219727
aF21.78922462463379
aF21.83734893798828
aF21.8902645111084
aF21.943866729736328
aF21.998748779296875
aF22.049373626708984
aF22.098814010620117
aF22.146324157714844
aF22.193941116333008
aF22.241558074951172
aF22.291086196899414
aF22.339126586914062
aF22.387191772460938
aF22.436649322509766
aF22.48651885986328
aF22.536455154418945
aF22.583660125732422
aF22.63236427307129
aF22.68033790588379
aF22.72814178466797
aF22.777145385742188
aF22.8266658782959
aF22.87512969970703
aF22.9237060546875
aF22.973155975341797
aF23.025192260742188
aF23.076313018798828
aF23.1276912689209
aF23.17496109008789
aF23.222455978393555
aF23.270063400268555
aF23.318880081176758
aF23.366249084472656
aF23.41358184814453
aF23.460988998413086
aF23.508386611938477
aF23.555728912353516
aF23.603029251098633
aF23.650651931762695
aF23.69799041748047
aF23.74526596069336
aF23.79265022277832
asssI4
g1
(g2
tp132
Rp133
I30
g1
(g2
tp134
Rp135
I1
(lp136
F2.520000066397188e-07
aF0.02410302124917507
aF0.042336463928222656
aF0.06026867777109146
aF0.08043462038040161
aF0.10057864338159561
aF0.11864573508501053
aF0.13870039582252502
aF0.15866297483444214
aF0.17671090364456177
aF0.19682569801807404
aF0.21672144532203674
aF0.2345806062221527
aF0.25480809807777405
aF0.2749299705028534
aF0.29299837350845337
aF0.3129290044307709
aF0.3329448699951172
aF0.3509390950202942
aF0.3709583282470703
aF0.39068254828453064
aF0.41067004203796387
aF0.42872366309165955
aF0.44905757904052734
aF0.46892833709716797
aF0.4865369200706482
aF0.5067418217658997
aF0.52674800157547
aF0.5469910502433777
aF0.5647875070571899
aF0.5848037004470825
aF0.6049461364746094
aF0.6229676604270935
aF0.6431050300598145
aF0.6630622744560242
aF0.6807409524917603
aF0.7009810209274292
aF0.7210443615913391
aF0.7410790324211121
aF0.7588615417480469
aF0.7788713574409485
aF0.7991671562194824
aF0.8171159029006958
aF0.8372196555137634
aF0.8572203516960144
aF0.8768783807754517
aF0.8950033187866211
aF0.9151825904846191
aF0.9351173639297485
aF0.9550991058349609
aF0.9729472398757935
aF0.9930135607719421
aF1.0129162073135376
aF1.0327882766723633
aF1.050675630569458
aF1.0707074403762817
aF1.0907331705093384
aF1.110689640045166
aF1.1289114952087402
aF1.1488478183746338
aF1.1689139604568481
aF1.1868836879730225
aF1.206998586654663
aF1.2268694639205933
aF1.2447400093078613
aF1.265153408050537
aF1.2864967584609985
aF1.3044689893722534
aF1.3224210739135742
aF1.3424426317214966
aF1.3625915050506592
aF1.38266921043396
aF1.4007272720336914
aF1.4207749366760254
aF1.4406830072402954
aF1.458729863166809
aF1.4790736436843872
aF1.4991118907928467
aF1.517077922821045
aF1.5373902320861816
aF1.5576391220092773
aF1.5755212306976318
aF1.5956426858901978
aF1.6157286167144775
aF1.6372355222702026
aF1.6551958322525024
aF1.673109531402588
aF1.693186640739441
aF1.7132070064544678
aF1.7311755418777466
aF1.751124620437622
aF1.7710853815078735
aF1.7910101413726807
aF1.8090649843215942
aF1.8290983438491821
aF1.8489906787872314
aF1.8669676780700684
aF1.8872060775756836
aF1.907321572303772
aF1.9251612424850464
aF1.9451435804367065
aF1.965296745300293
aF1.9852824211120605
aF2.0034518241882324
aF2.0234010219573975
aF2.0432252883911133
aF2.0632448196411133
aF2.0812602043151855
aF2.101266384124756
aF2.121178150177002
aF2.139052152633667
aF2.159306764602661
aF2.179398775100708
aF2.1973326206207275
aF2.2175047397613525
aF2.237577199935913
aF2.2576465606689453
aF2.275505781173706
aF2.2956113815307617
aF2.3156890869140625
aF2.333552360534668
aF2.3536124229431152
aF2.3737258911132812
aF2.393733501434326
aF2.4117088317871094
aF2.4316372871398926
aF2.451626777648926
aF2.4697418212890625
aF2.4899919033050537
aF2.5102128982543945
aF2.5279572010040283
aF2.5481297969818115
aF2.5682313442230225
aF2.588299036026001
aF2.6075217723846436
aF2.6262848377227783
aF2.6462535858154297
aF2.6642041206359863
aF2.6842422485351562
aF2.7040352821350098
aF2.7242422103881836
aF2.7422423362731934
aF2.762701988220215
aF2.780614137649536
aF2.800631523132324
aF2.820707082748413
aF2.840750217437744
aF2.8592276573181152
aF2.8787503242492676
aF2.8984532356262207
aF2.916740655899048
aF2.9369564056396484
aF2.9554975032806396
aF2.9752655029296875
aF2.995103597640991
aF3.013094425201416
aF3.0330631732940674
aF3.051401138305664
aF3.071436882019043
aF3.0913538932800293
aF3.1093552112579346
aF3.129528522491455
aF3.147840738296509
aF3.1677680015563965
aF3.187838554382324
aF3.205951452255249
aF3.2258987426757812
aF3.2443320751190186
aF3.2643299102783203
aF3.2842884063720703
aF3.302452564239502
aF3.3225693702697754
aF3.340944290161133
aF3.360929250717163
aF3.3807361125946045
aF3.398650646209717
aF3.4188971519470215
aF3.4391298294067383
aF3.4569647312164307
aF3.4771604537963867
aF3.497164249420166
aF3.517167568206787
aF3.535125732421875
aF3.5552680492401123
aF3.5752198696136475
aF3.5931646823883057
aF3.613518476486206
aF3.633549451828003
aF3.65146803855896
aF3.6716935634613037
aF3.6918256282806396
aF3.7099428176879883
aF3.7301559448242188
aF3.748211145401001
aF3.7684998512268066
aF3.78872013092041
aF3.808837890625
aF3.8268396854400635
aF3.8470962047576904
aF3.867190361022949
aF3.8852322101593018
aF3.9053378105163574
aF3.926661968231201
aF3.9454431533813477
aF3.9635117053985596
aF3.9834485054016113
aF4.001417636871338
aF4.021645545959473
aF4.0418267250061035
aF4.06005859375
aF4.08022403717041
aF4.1003217697143555
aF4.118470668792725
aF4.13855504989624
aF4.158811569213867
aF4.176896572113037
aF4.197033405303955
aF4.215209007263184
aF4.235354423522949
aF4.255314826965332
aF4.275478839874268
aF4.293521404266357
aF4.313711166381836
aF4.3317341804504395
aF4.351891040802002
aF4.3721113204956055
aF4.3902482986450195
aF4.410433769226074
aF4.430568218231201
aF4.448512077331543
aF4.468935012817383
aF4.488893985748291
aF4.508635520935059
aF4.526745319366455
aF4.546841621398926
aF4.567069053649902
aF4.585008144378662
aF4.605162620544434
aF4.625293731689453
aF4.643097877502441
aF4.663249969482422
aF4.683348655700684
aF4.701427459716797
aF4.721728324890137
aF4.741706848144531
aF4.761904239654541
aF4.77996301651001
aF4.800017356872559
aF4.81820821762085
aF4.838274002075195
aF4.858338356018066
aF4.878450870513916
aF4.896501541137695
aF4.916674613952637
aF4.936578273773193
aF4.954559803009033
aF4.974681377410889
aF4.994721412658691
aF5.012718200683594
aF5.032934188842773
aF5.053102493286133
aF5.071261405944824
aF5.091343402862549
aF5.111277103424072
aF5.1313862800598145
aF5.149504661560059
aF5.169683456420898
aF5.18968391418457
aF5.207723140716553
aF5.2279767990112305
aF5.24808406829834
aF5.266210556030273
aF5.286193370819092
aF5.3060736656188965
aF5.324192047119141
aF5.344364643096924
aF5.364400863647461
aF5.384271144866943
aF5.40231990814209
aF5.422506809234619
aF5.442638397216797
aF5.460885047912598
aF5.4809770584106445
aF5.500905513763428
aF5.519016742706299
aF5.539189338684082
aF5.559373378753662
aF5.577301979064941
aF5.597400188446045
aF5.617682456970215
aF5.635693550109863
aF5.656062602996826
aF5.675962924957275
aF5.693936824798584
aF5.714267730712891
aF5.734424591064453
aF5.752437591552734
aF5.772553443908691
aF5.792564392089844
aF5.810668468475342
aF5.830891132354736
aF5.851019859313965
aF5.8689188957214355
aF5.88916015625
aF5.90927791595459
aF5.927345275878906
aF5.947659015655518
aF5.96761417388916
aF5.985610008239746
aF6.005941867828369
aF6.026148319244385
aF6.044144630432129
aF6.064347267150879
aF6.084548473358154
aF6.1026387214660645
aF6.122920036315918
aF6.142894268035889
aF6.1609649658203125
aF6.180850982666016
aF6.20095682144165
aF6.221179962158203
aF6.239358425140381
aF6.259357452392578
aF6.279434680938721
aF6.297483444213867
aF6.3176727294921875
aF6.337886810302734
aF6.355983257293701
aF6.376315593719482
aF6.396137714385986
aF6.414218902587891
aF6.434435844421387
aF6.454685211181641
aF6.472827434539795
aF6.493086814880371
aF6.513220310211182
aF6.531373500823975
aF6.551567554473877
aF6.571845054626465
aF6.5907182693481445
aF6.609606742858887
aF6.6297831535339355
aF6.647720813751221
aF6.667823791503906
aF6.687987804412842
aF6.7061638832092285
aF6.726279258728027
aF6.746514797210693
aF6.764311790466309
aF6.784622669219971
aF6.80481481552124
aF6.823068141937256
aF6.843389511108398
aF6.8633317947387695
aF6.881457328796387
aF6.901642322540283
aF6.921633243560791
aF6.939755439758301
aF6.960065841674805
aF6.980382919311523
aF6.998268127441406
aF7.018468856811523
aF7.038685321807861
aF7.056457996368408
aF7.076549053192139
aF7.096691608428955
aF7.1168212890625
aF7.135021686553955
aF7.155059814453125
aF7.175076484680176
aF7.193166732788086
aF7.214599609375
aF7.233412265777588
aF7.2513017654418945
aF7.271378993988037
aF7.291370391845703
aF7.309696197509766
aF7.329732894897461
aF7.3497633934021
aF7.367924690246582
aF7.388171195983887
aF7.4083943367004395
aF7.4264044761657715
aF7.446587085723877
aF7.466637134552002
aF7.484753608703613
aF7.504714012145996
aF7.524856090545654
aF7.54293155670166
aF7.56324577331543
aF7.58340311050415
aF7.601334571838379
aF7.622781276702881
aF7.641774654388428
aF7.659913539886475
aF7.679872035980225
aF7.699728965759277
aF7.717838287353516
aF7.738193035125732
aF7.758138179779053
aF7.776155471801758
aF7.796444892883301
aF7.816322326660156
aF7.83448600769043
aF7.854764461517334
aF7.874990463256836
aF7.893036365509033
aF7.913095951080322
aF7.933332443237305
aF7.951297760009766
aF7.971395015716553
aF7.991457939147949
aF8.009510040283203
aF8.029683113098145
aF8.04987621307373
aF8.067981719970703
aF8.087998390197754
aF8.108112335205078
aF8.126211166381836
aF8.146385192871094
aF8.16649055480957
aF8.184357643127441
aF8.204789161682129
aF8.224847793579102
aF8.242960929870605
aF8.26312255859375
aF8.283011436462402
aF8.301095008850098
aF8.321439743041992
aF8.341548919677734
aF8.359465599060059
aF8.379671096801758
aF8.399843215942383
aF8.417924880981445
aF8.43825912475586
aF8.458332061767578
aF8.476401329040527
aF8.49658203125
aF8.51663589477539
aF8.534823417663574
aF8.555108070373535
aF8.575103759765625
aF8.5931978225708
aF8.613057136535645
aF8.633173942565918
aF8.651260375976562
aF8.673090934753418
aF8.691937446594238
aF8.709914207458496
aF8.730108261108398
aF8.750107765197754
aF8.768259048461914
aF8.788290977478027
aF8.808268547058105
aF8.82713508605957
aF8.846220016479492
aF8.864339828491211
aF8.882447242736816
aF8.901193618774414
aF8.919986724853516
aF8.938793182373047
aF8.956727981567383
aF8.97515869140625
aF8.993714332580566
aF9.012639045715332
aF9.030949592590332
aF9.04934310913086
aF9.06824779510498
aF9.087132453918457
aF9.105839729309082
aF9.1236572265625
aF9.142083168029785
aF9.160871505737305
aF9.179641723632812
aF9.197754859924316
aF9.21618938446045
aF9.235045433044434
aF9.253828048706055
aF9.272259712219238
aF9.290119171142578
aF9.309440612792969
aF9.329251289367676
aF9.348164558410645
aF9.36682415008545
aF9.384725570678711
aF9.403409957885742
aF9.422080993652344
aF9.440353393554688
aF9.458351135253906
aF9.477231979370117
aF9.495635986328125
aF9.514579772949219
aF9.532974243164062
aF9.551281929016113
aF9.570117950439453
aF9.588788986206055
aF9.6074800491333
aF9.62498664855957
aF9.643672943115234
aF9.662419319152832
assssssa.