(lp0
ccollections
defaultdict
p1
(c__main__
tree
p2
tp3
Rp4
S'cyc_word_embeddings_cyc'
p5
g1
(g2
tp6
Rp7
I200
g1
(g2
tp8
Rp9
I300
g1
(g2
tp10
Rp11
I8
g1
(g2
tp12
Rp13
I30
g1
(g2
tp14
Rp15
I1
(lp16
F4.974545242152762
aF0.1390334731462475
aF0.005132300118287946
aF0.00026582627384209357
aF2.44129671964591e-05
aF5.969501534507858e-06
aF2.8142475779679175e-06
aF1.6186349707172172e-06
aF9.858985806622174e-07
aF6.142434127619285e-07
aF3.871084189830243e-07
aF2.455950531475225e-07
aF1.5646298216519578e-07
aF9.994808153219356e-08
aF6.396091928362715e-08
aF4.0980583920248435e-08
aF2.6278244201398783e-08
aF1.6859930404379826e-08
aF1.0821292082985049e-08
aF6.947257116350644e-09
aF4.460896029354982e-09
aF2.8647072587257394e-09
aF1.83980000566561e-09
aF1.1816298433406246e-09
aF7.589353455032714e-10
aF4.874558034096301e-10
aF3.130900766864058e-10
aF2.0109656567932457e-10
aF1.2916351395369117e-10
aF8.296100968010516e-11
aF5.328521293125177e-11
aF3.422454290842524e-11
aF2.198198065341565e-11
aF1.4118684753806684e-11
aF9.068177614046455e-12
aF5.824307343801934e-12
aF3.740823236835471e-12
aF2.402640951447146e-12
aF1.543154788686299e-12
aF9.911266823910572e-13
aF6.365727276785303e-13
aF4.088520517722705e-13
aF2.6259335052026784e-13
aF1.6865559106693176e-13
aF1.083221600201791e-13
aF6.957184091976597e-14
aF4.4683722921557695e-14
aF2.869887843182645e-14
aF1.84323309787345e-14
aF1.1838464943884596e-14
aF7.603444003284492e-15
aF4.883432221944207e-15
aF3.1364607148115245e-15
aF2.0144404534114735e-15
aF1.2938053013963878e-15
aF8.309661680712143e-16
aF5.337006028262765e-16
aF3.4277724939486477e-16
aF2.2015382676581277e-16
aF1.4139708237421428e-16
aF9.081437999829335e-17
aF5.832688255069195e-17
aF3.7461302778960046e-17
aF2.406007395797887e-17
aF1.5452936004550867e-17
aF9.92487429649042e-18
aF6.374395135840789e-18
aF4.094047689618471e-18
aF2.6294611527000823e-18
aF1.688809149362878e-18
aF1.0846617983849667e-18
aF6.966395012978082e-19
aF4.474266409033202e-19
aF2.873661163104746e-19
aF1.845649611355678e-19
aF1.1853944400972782e-19
aF7.613361433436836e-20
aF4.8897867236861836e-20
aF3.140532464208853e-20
aF2.0170492682082074e-20
aF1.2954764705562285e-20
aF8.32036143035132e-21
aF5.343851863710937e-21
aF3.432148708479374e-21
aF2.204331009163952e-21
aF1.4157503058154836e-21
aF9.092746282369039e-22
aF5.839858033354179e-22
aF3.750662590238568e-22
aF2.408860302156665e-22
aF1.5470848999096954e-22
aF9.936092522864307e-23
aF6.381435623723336e-23
aF4.098493150111978e-23
aF2.6323000835482268e-23
aF1.6906617624357906e-23
aF1.085912707705364e-23
aF6.975287927642361e-24
aF4.4809841231503005e-24
aF2.8790949697697844e-24
aF1.850313573117915e-24
aF1.1896072398849322e-24
aF7.652618557445558e-25
aF4.927114863710382e-25
aF3.1764529992853928e-25
aF2.0517576801634307e-25
aF1.329148906232365e-25
aF8.647138330058249e-26
aF5.660975536929784e-26
aF3.740182076424716e-26
aF2.5036175543141448e-26
aF1.706681875054954e-26
aF1.1922982689485458e-26
aF8.59556682211476e-27
aF6.4357950100527525e-27
aF5.02972019003667e-27
aF4.106434454322903e-27
aF3.496879688386063e-27
aF3.090393072789229e-27
aF2.8149355415440464e-27
aF2.6242263798466832e-27
aF2.4899292277337457e-27
aF2.394340362476873e-27
aF2.3232383619069207e-27
aF2.268741482118524e-27
aF2.226194779386598e-27
aF2.1920640681439216e-27
aF2.164029241647628e-27
aF2.139624861223262e-27
aF2.1179762130642264e-27
aF2.0988363759469425e-27
aF2.081437735516405e-27
aF2.0654898597292797e-27
aF2.0506748667067405e-27
aF2.037016637730524e-27
aF2.024739778760781e-27
aF2.0133628681735653e-27
aF2.0027870715745657e-27
aF1.9928634804853475e-27
aF1.9835913284731448e-27
aF1.975127263303731e-27
aF1.9667430680561605e-27
aF1.9588882529717334e-27
aF1.951657674368251e-27
aF1.944481836808333e-27
aF1.9375763923321543e-27
aF1.9308972364526025e-27
aF1.9247842683012136e-27
aF1.9191601697483975e-27
aF1.9136081361855683e-27
aF1.908267442104259e-27
aF1.9035854562249906e-27
aF1.8990185338422473e-27
aF1.8947302928108354e-27
aF1.8910166222959965e-27
aF1.887355461039362e-27
aF1.8840694124548068e-27
aF1.881136013315678e-27
aF1.8782307747360086e-27
aF1.8755315150535905e-27
aF1.8734329034682204e-27
aF1.8713153484824593e-27
aF1.869683816037604e-27
aF1.868358229495028e-27
aF1.867237742117417e-27
aF1.8663252355451992e-27
aF1.8655335694903844e-27
aF1.8647475648095896e-27
aF1.8638026998352742e-27
aF1.863028222269303e-27
aF1.8622681132503058e-27
aF1.861761855220974e-27
aF1.8610428550543825e-27
aF1.8604375428241393e-27
aF1.8597973534039237e-27
aF1.8594204193393744e-27
aF1.8589102556030345e-27
aF1.8585428863733546e-27
aF1.858131303754929e-27
aF1.857626536575134e-27
aF1.8571405927307516e-27
aF1.8568229548806215e-27
aF1.8563857509556196e-27
aF1.8560924839488045e-27
aF1.855702282528746e-27
aF1.8553883023974815e-27
aF1.855158482049038e-27
aF1.8549264174702974e-27
aF1.8547685703970363e-27
aF1.854539268992364e-27
aF1.8544103278392514e-27
aF1.8541984323557025e-27
aF1.8539581917836146e-27
aF1.8538275021134266e-27
aF1.8537222650247935e-27
aF1.8536253705028025e-27
aF1.8534452088001634e-27
aF1.8532937078220526e-27
aF1.8531482305916054e-27
aF1.8529783803661167e-27
assssssag1
(g2
tp17
Rp18
g5
g1
(g2
tp19
Rp20
I200
g1
(g2
tp21
Rp22
I300
g1
(g2
tp23
Rp24
I8
g1
(g2
tp25
Rp26
I30
g1
(g2
tp27
Rp28
I1
(lp29
F0.10908084362745285
aF0.1405591070652008
aF0.16996631026268005
aF0.19967079162597656
aF0.22909808158874512
aF0.25885307788848877
aF0.2884853482246399
aF0.3183708190917969
aF0.34817028045654297
aF0.3775746822357178
aF0.4074433743953705
aF0.4369472563266754
aF0.46672558784484863
aF0.4962368905544281
aF0.5253731608390808
aF0.5544552206993103
aF0.5837194919586182
aF0.6127152442932129
aF0.6420925855636597
aF0.6715843677520752
aF0.7009982466697693
aF0.7305546998977661
aF0.7603514194488525
aF0.7901217937469482
aF0.819756805896759
aF0.8492553234100342
aF0.8790014386177063
aF0.908664882183075
aF0.9382867217063904
aF0.9682000279426575
aF0.9974561929702759
aF1.027050256729126
aF1.056774377822876
aF1.0862025022506714
aF1.1155385971069336
aF1.1447322368621826
aF1.1741502285003662
aF1.2037696838378906
aF1.233229398727417
aF1.2631161212921143
aF1.292872667312622
aF1.3227593898773193
aF1.3525844812393188
aF1.3823353052139282
aF1.4122536182403564
aF1.4417638778686523
aF1.4711291790008545
aF1.5009111166000366
aF1.530495524406433
aF1.5599013566970825
aF1.589248776435852
aF1.618717908859253
aF1.6483043432235718
aF1.6778887510299683
aF1.707466959953308
aF1.7370144128799438
aF1.7666070461273193
aF1.7963005304336548
aF1.8261841535568237
aF1.8559709787368774
aF1.8852667808532715
aF1.9150149822235107
aF1.9448552131652832
aF1.975008249282837
aF2.004976749420166
aF2.0347611904144287
aF2.06449031829834
aF2.0943572521209717
aF2.124089002609253
aF2.153561592102051
aF2.1826558113098145
aF2.2119343280792236
aF2.2413761615753174
aF2.2707886695861816
aF2.3002378940582275
aF2.3296942710876465
aF2.358956813812256
aF2.388509750366211
aF2.418407678604126
aF2.447798728942871
aF2.477771043777466
aF2.5074045658111572
aF2.536914825439453
aF2.5665626525878906
aF2.5958943367004395
aF2.6250193119049072
aF2.6544296741485596
aF2.6839025020599365
aF2.7129809856414795
aF2.742443799972534
aF2.7720236778259277
aF2.8018033504486084
aF2.8314197063446045
aF2.861018657684326
aF2.8908073902130127
aF2.9205973148345947
aF2.9504313468933105
aF2.9799797534942627
aF3.0093302726745605
aF3.0390799045562744
aF3.068579912185669
aF3.0980470180511475
aF3.1275699138641357
aF3.156731367111206
aF3.185797929763794
aF3.2150180339813232
aF3.244110345840454
aF3.2731401920318604
aF3.3027732372283936
aF3.3321692943573
aF3.361617088317871
aF3.3910176753997803
aF3.4204626083374023
aF3.4496958255767822
aF3.478863477706909
aF3.5082921981811523
aF3.5376880168914795
aF3.567304849624634
aF3.596522808074951
aF3.6261701583862305
aF3.655766010284424
aF3.685047149658203
aF3.7146522998809814
aF3.7445485591888428
aF3.774390459060669
aF3.8037021160125732
aF3.8328425884246826
aF3.8619322776794434
aF3.8910746574401855
aF3.920598030090332
aF3.95032000541687
aF3.979675531387329
aF4.008604049682617
aF4.038205146789551
aF4.067936897277832
aF4.097327709197998
aF4.127110481262207
aF4.156765937805176
aF4.1866631507873535
aF4.216368675231934
aF4.246042728424072
aF4.275832176208496
aF4.305390357971191
aF4.335022926330566
aF4.364179611206055
aF4.393093109130859
aF4.422420024871826
aF4.45175313949585
aF4.480895519256592
aF4.510400295257568
aF4.540135383605957
aF4.56951379776001
aF4.599329948425293
aF4.628809452056885
aF4.658316612243652
aF4.687857151031494
aF4.717064380645752
aF4.746151924133301
aF4.775329113006592
aF4.804444313049316
aF4.833640098571777
aF4.863088607788086
aF4.892601013183594
aF4.9223713874816895
aF4.952014446258545
aF4.981201648712158
aF5.011041641235352
aF5.040900230407715
aF5.070828914642334
aF5.10048246383667
aF5.130109786987305
aF5.159850597381592
aF5.189296722412109
aF5.218655586242676
aF5.248193740844727
aF5.277641773223877
aF5.307180404663086
aF5.336356163024902
aF5.365813732147217
aF5.395400047302246
aF5.424444675445557
aF5.453638076782227
aF5.483011245727539
aF5.5129008293151855
aF5.542619705200195
aF5.572434902191162
aF5.602160930633545
aF5.631689071655273
aF5.66103458404541
aF5.6903557777404785
aF5.719630718231201
aF5.748687744140625
aF5.7783331871032715
aF5.808062553405762
aF5.837728977203369
aF5.867119789123535
aF5.896792888641357
aF5.9265899658203125
aF5.956561088562012
aF5.98646354675293
assssssag1
(g2
tp30
Rp31
g5
g1
(g2
tp32
Rp33
I200
g1
(g2
tp34
Rp35
I300
g1
(g2
tp36
Rp37
I8
g1
(g2
tp38
Rp39
I30
g1
(g2
tp40
Rp41
I1
(lp42
F9.600000083764826e-08
aF0.03147827461361885
aF0.06088550016283989
aF0.09058991074562073
aF0.12001718580722809
aF0.14977219700813293
aF0.17940449714660645
aF0.20928990840911865
aF0.23908939957618713
aF0.2684938609600067
aF0.29836246371269226
aF0.32786640524864197
aF0.3576446771621704
aF0.38715600967407227
aF0.41629236936569214
aF0.44537442922592163
aF0.47463855147361755
aF0.5036343336105347
aF0.5330116748809814
aF0.562503457069397
aF0.5919173359870911
aF0.6214738488197327
aF0.6512705087661743
aF0.68104088306427
aF0.7106759548187256
aF0.740174412727356
aF0.7699205279350281
aF0.7995840907096863
aF0.8292058110237122
aF0.8591192364692688
aF0.8883753418922424
aF0.9179694652557373
aF0.9476935267448425
aF0.9771216511726379
aF1.0064576864242554
aF1.0356513261795044
aF1.065069317817688
aF1.0946887731552124
aF1.1241486072540283
aF1.154035210609436
aF1.1837917566299438
aF1.2136785984039307
aF1.2435035705566406
aF1.2732545137405396
aF1.3031727075576782
aF1.3326830863952637
aF1.3620482683181763
aF1.3918302059173584
aF1.4214146137237549
aF1.4508205652236938
aF1.4801678657531738
aF1.5096369981765747
aF1.5392234325408936
aF1.56880784034729
aF1.5983860492706299
aF1.6279335021972656
aF1.6575261354446411
aF1.6872196197509766
aF1.7171032428741455
aF1.7468900680541992
aF1.7761859893798828
aF1.8059340715408325
aF1.8357744216918945
aF1.8659273386001587
aF1.8958958387374878
aF1.925680160522461
aF1.9554094076156616
aF1.985276460647583
aF2.0150082111358643
aF2.044480800628662
aF2.073575019836426
aF2.102853536605835
aF2.1322953701019287
aF2.161707878112793
aF2.191157102584839
aF2.220613479614258
aF2.249876022338867
aF2.2794289588928223
aF2.3093268871307373
aF2.3387179374694824
aF2.368690013885498
aF2.3983237743377686
aF2.4278337955474854
aF2.457481861114502
aF2.486813545227051
aF2.5159382820129395
aF2.545348882675171
aF2.574821710586548
aF2.6038999557495117
aF2.6333630084991455
aF2.66294264793396
aF2.6927225589752197
aF2.7223386764526367
aF2.7519378662109375
aF2.781726360321045
aF2.811516284942627
aF2.841350555419922
aF2.870898723602295
aF2.9002492427825928
aF2.9299991130828857
aF2.959498882293701
aF2.988966226577759
aF3.018489122390747
aF3.0476503372192383
aF3.0767171382904053
aF3.1059372425079346
aF3.1350295543670654
aF3.1640591621398926
aF3.193692445755005
aF3.223088502883911
aF3.2525360584259033
aF3.2819366455078125
aF3.3113815784454346
aF3.3406150341033936
aF3.3697826862335205
aF3.3992111682891846
aF3.428607225418091
aF3.458224058151245
aF3.4874420166015625
aF3.5170891284942627
aF3.546685218811035
aF3.5759663581848145
aF3.6055712699890137
aF3.635467767715454
aF3.6653096675872803
aF3.6946213245391846
aF3.723761796951294
aF3.7528514862060547
aF3.781993865966797
aF3.8115172386169434
aF3.8412392139434814
aF3.8705945014953613
aF3.8995230197906494
aF3.929124355316162
aF3.9588561058044434
aF3.9882466793060303
aF4.018029689788818
aF4.047685146331787
aF4.077581882476807
aF4.107287883758545
aF4.136961936950684
aF4.166751384735107
aF4.196309566497803
aF4.225942134857178
aF4.255098819732666
aF4.284012317657471
aF4.3133392333984375
aF4.342672348022461
aF4.371814727783203
aF4.40131950378418
aF4.43105411529541
aF4.460433006286621
aF4.490249156951904
aF4.519728660583496
aF4.549235820770264
aF4.5787763595581055
aF4.607983589172363
aF4.637071132659912
aF4.666247844696045
aF4.695363521575928
aF4.7245588302612305
aF4.754007816314697
aF4.783520221710205
aF4.813290596008301
aF4.842933654785156
aF4.872120380401611
aF4.901960849761963
aF4.931819438934326
aF4.961748123168945
aF4.991401672363281
aF5.021028995513916
aF5.050769805908203
aF5.080215930938721
aF5.109574794769287
aF5.139112949371338
aF5.168560981750488
aF5.198099613189697
aF5.227275371551514
aF5.256732940673828
aF5.286319255828857
aF5.315363883972168
aF5.344557285308838
aF5.373929977416992
aF5.403820037841797
aF5.433538913726807
aF5.463354110717773
aF5.493080139160156
aF5.522608280181885
aF5.5519537925720215
aF5.58127498626709
aF5.6105499267578125
aF5.639606475830078
aF5.669252395629883
aF5.698981761932373
aF5.728647708892822
aF5.7580389976501465
aF5.787712097167969
aF5.817509174346924
aF5.847480297088623
aF5.877382755279541
assssssa.