(lp0
ccollections
defaultdict
p1
(c__main__
tree
p2
tp3
Rp4
S'cyc_word_embeddings_serial'
p5
g1
(g2
tp6
Rp7
I30
g1
(g2
tp8
Rp9
I4250
g1
(g2
tp10
Rp11
I8
g1
(g2
tp12
Rp13
I30
g1
(g2
tp14
Rp15
I1
(lp16
F4293.362728102714
aF14.90266500659417
aF12.401547365192396
aF11.436480282708965
aF10.747243512091625
aF10.17644083358223
aF9.680038519439899
aF9.238603245215305
aF8.840932257645196
aF8.479505715079153
aF8.148815044975008
aF7.844608403319867
aF7.563492435417914
aF7.302695863118653
aF7.059916626227336
aF6.833216852575893
aF6.620947475998182
aF6.421692363618613
aF6.234225867047999
aF6.0574799296003965
aF5.890518180044103
aF5.732515246032023
aF5.582740038263774
aF5.440542102233657
aF5.305340371812273
aF5.176613825703692
aF5.053893667354031
aF4.936756736044346
aF4.824819921427915
aF4.717735402202267
assssssS'cyc_word_embeddings_serial_shuffle'
p17
g1
(g2
tp18
Rp19
I30
g1
(g2
tp20
Rp21
I4250
g1
(g2
tp22
Rp23
I8
g1
(g2
tp24
Rp25
I30
g1
(g2
tp26
Rp27
I1
(lp28
F4293.362728102714
aF14.862029915851734
aF12.488598004399059
aF12.180734442706807
aF10.798708803455927
aF10.170881747684255
aF9.630931049030256
aF9.250843238149166
aF8.80501440613567
aF8.386917983927464
aF8.09974527817928
aF7.727829984693863
aF7.55124945271865
aF7.89174188157772
aF6.953484596589195
aF6.792990992654368
aF6.555028848986087
aF6.593734376246977
aF6.1709172029305535
aF6.0217637047721775
aF5.81917565245782
aF5.711229091438831
aF5.966553493105661
aF5.390507897998834
aF5.251784830924742
aF5.153033343211928
aF5.0866631213587405
aF5.276821103888789
aF4.855814458595512
aF4.763639003253139
assssssag1
(g2
tp29
Rp30
g5
g1
(g2
tp31
Rp32
I30
g1
(g2
tp33
Rp34
I4250
g1
(g2
tp35
Rp36
I8
g1
(g2
tp37
Rp38
I30
g1
(g2
tp39
Rp40
I1
(lp41
F0.0
aF0.0
aF0.0
aF0.0
aF0.0
aF0.0
aF0.0
aF0.0
aF0.0
aF0.0
aF0.0
aF0.0
aF0.0
aF0.0
aF0.0
aF0.0
aF0.0
aF0.0
aF0.0
aF0.0
aF0.0
aF0.0
aF0.0
aF0.0
aF0.0
aF0.0
aF0.0
aF0.0
aF0.0
aF0.0
assssssg17
g1
(g2
tp42
Rp43
I30
g1
(g2
tp44
Rp45
I4250
g1
(g2
tp46
Rp47
I8
g1
(g2
tp48
Rp49
I30
g1
(g2
tp50
Rp51
I1
(lp52
F0.0
aF0.0
aF0.0
aF0.0
aF0.0
aF0.0
aF0.0
aF0.0
aF0.0
aF0.0
aF0.0
aF0.0
aF0.0
aF0.0
aF0.0
aF0.0
aF0.0
aF0.0
aF0.0
aF0.0
aF0.0
aF0.0
aF0.0
aF0.0
aF0.0
aF0.0
aF0.0
aF0.0
aF0.0
aF0.0
assssssag1
(g2
tp53
Rp54
g5
g1
(g2
tp55
Rp56
I30
g1
(g2
tp57
Rp58
I4250
g1
(g2
tp59
Rp60
I8
g1
(g2
tp61
Rp62
I30
g1
(g2
tp63
Rp64
I1
(lp65
F0.0
aF0.0
aF0.0
aF0.0
aF0.0
aF0.0
aF0.0
aF0.0
aF0.0
aF0.0
aF0.0
aF0.0
aF0.0
aF0.0
aF0.0
aF0.0
aF0.0
aF0.0
aF0.0
aF0.0
aF0.0
aF0.0
aF0.0
aF0.0
aF0.0
aF0.0
aF0.0
aF0.0
aF0.0
aF0.0
assssssg17
g1
(g2
tp66
Rp67
I30
g1
(g2
tp68
Rp69
I4250
g1
(g2
tp70
Rp71
I8
g1
(g2
tp72
Rp73
I30
g1
(g2
tp74
Rp75
I1
(lp76
F0.0
aF0.0
aF0.0
aF0.0
aF0.0
aF0.0
aF0.0
aF0.0
aF0.0
aF0.0
aF0.0
aF0.0
aF0.0
aF0.0
aF0.0
aF0.0
aF0.0
aF0.0
aF0.0
aF0.0
aF0.0
aF0.0
aF0.0
aF0.0
aF0.0
aF0.0
aF0.0
aF0.0
aF0.0
aF0.0
assssssa.