(lp0
ccollections
defaultdict
p1
(c__main__
tree
p2
tp3
Rp4
S'cyc_least_squares_hog_saga_crimp'
p5
g1
(g2
tp6
Rp7
I100
g1
(g2
tp8
Rp9
I1000
g1
(g2
tp10
Rp11
I16
g1
(g2
tp12
Rp13
I0
g1
(g2
tp14
Rp15
I1
(lp16
F900979830047435.6
aF7257026399223.323
aF11422801664407.08
aF1499327076702.702
aF84466272668.28197
aF63549061037.5542
aF948071012.6129018
aF8576175508.969619
aF819143912.3564377
aF74598091.67979108
aF14810279.499333017
aF18747531.0381654
aF16095795.172895618
aF8389711.435672244
aF8053427.505729456
aF3375697.5552120903
aF44552367.03488449
aF253756.4692533516
aF25250298.952747483
aF14238260.49579232
aF15492264.67071529
aF8251345.314139229
aF5070028.024151194
aF1466594.748157649
aF4062762.9842667733
aF1500645.3809195717
aF691480.4660362174
aF4927334.315442948
aF6351089.562352859
aF6417217.360264033
aF51921289.674321
aF61684934.99706906
aF11392083.907143608
aF5914452.184315645
aF8677118.555154935
aF34511310.00615296
aF12439034.531661682
aF6421841.101961393
aF68619167.1541187
aF15675169.702535981
aF2368275.518834938
aF7466822.570410643
aF2958762.1721870042
aF110445872.05917074
aF73110719.9523087
aF102182728.5187953
aF29169887.768218886
aF248678.0323035526
aF7791478.021402843
aF17991510.141862787
aF2555883.041421632
aF14646160.72575637
aF4938808.933231964
aF4230898.265310807
aF2698128.589974202
aF7167655.759842616
aF4160675.6459677517
aF11096492.131048188
aF1374195.9910792226
aF11048743.721697278
aF59263135.996033885
aF34002805.286655895
aF70583765.64465527
aF45277818.509939425
aF6498619.49820856
aF5191489.16886941
aF3536747.160861632
aF113148456.02414687
aF52997049.280349076
aF6671034.983078471
aF1504231.7134510141
aF4352302.940549299
aF4081399.259969235
aF6686002.481863119
aF9413074.27138559
aF15628588.020405529
aF137874099.14025465
aF61343454.68188689
aF22922367.21096526
aF94201342.79839678
aF76656575.39609298
aF28220066.175030615
aF21237043.588027474
aF2269919.883563548
aF50555388.22966385
aF22654449.761266988
aF27571282.76167796
aF22155959.81750151
aF14887031.534009518
aF7379307.695967861
aF28183145.13073823
aF7898638.086493522
aF6004848.655452053
aF5786619.199957613
aF1217394.2181616656
aF3330100.059451926
aF7394757.472615406
aF8158088.9732979415
aF3684123.2967560166
aF919993.9801521535
assssssS'cyc_least_squares_hog_saga'
p17
g1
(g2
tp18
Rp19
I100
g1
(g2
tp20
Rp21
I1000
g1
(g2
tp22
Rp23
I16
g1
(g2
tp24
Rp25
I0
g1
(g2
tp26
Rp27
I1
(lp28
F900979830047435.6
aF25724132583252.97
aF43230840076782.18
aF75701411821395.83
aF96670840244666.98
aF103147356910093.12
aF117843777034259.5
aF125009042995240.61
aF141591634646584.47
aF153267686872373.62
aF185479225606835.53
aF193981529957597.75
aF227753841944330.53
aF236671683365513.22
aF255342720150411.4
aF226235620641894.1
aF294548457603577.56
aF415755499172339.8
aF346974967634690.1
aF383937298667887.3
aF417617437418460.5
aF509580349387641.56
aF539561312569793.25
aF745524018998762.0
aF788385966153301.4
aF992263945602375.9
aF1190541864202940.2
aF1320105628038447.0
aF1559900631599193.0
aF2020349791149382.0
aF1927912940267132.8
aF2369394981183216.0
aF2868439817039549.5
aF3226592987809544.5
aF3774667144960360.0
aF4421752861065462.5
aF5086411980459053.0
aF5734233744277007.0
aF6594076514083959.0
aF8755495846453925.0
aF8877599566389424.0
aF1.1659451644031186e+16
aF1.5788199149696266e+16
aF1.6707446351477144e+16
aF1.8747455771923604e+16
aF2.05869490266679e+16
aF2.458529698400266e+16
aF2.653198667088726e+16
aF2.600992452681534e+16
aF3.113431350151797e+16
aF3.6058367938436824e+16
aF3.994296932742287e+16
aF3.9916353811539336e+16
aF5.277588723494768e+16
aF4.626490820800446e+16
aF5.682293988183478e+16
aF6.812907448598513e+16
aF7.1767686482811864e+16
aF6.9738448157697256e+16
aF7.603664779439128e+16
aF1.1745614004754856e+17
aF1.1849731037571763e+17
aF1.3065912296833338e+17
aF1.6396429312371043e+17
aF1.8053067477810736e+17
aF2.015322330168767e+17
aF1.7971956848778106e+17
aF2.1696600107580915e+17
aF2.593769804899071e+17
aF3.0415128198409434e+17
aF3.671364530408646e+17
aF4.8062372829414656e+17
aF5.85090070013538e+17
aF6.133341397998705e+17
aF7.48273590905828e+17
aF1.14998359503051e+18
aF1.6643717072125233e+18
aF1.2259584519403151e+18
aF1.3628335769863488e+18
aF1.4875143211439135e+18
aF2.100245189205263e+18
aF1.8284273543038682e+18
aF2.6649349612546913e+18
aF3.597066742637255e+18
aF2.7365208988795796e+18
aF3.0359431177541053e+18
aF4.2763066289360236e+18
aF6.73108922392537e+18
aF4.574950886469726e+18
aF4.565189865323207e+18
aF7.297286304689839e+18
aF9.767568403499481e+18
aF1.4720589141290858e+17
aF6.114462087385308e+18
aF4.837818722794419e+18
aF4.6089431737164636e+18
aF4.868465405840367e+18
aF4.875077330916131e+18
aF4.862358638498778e+18
aF4.3946667959654006e+18
assssssS'cyc_least_squares_cyc_saga'
p29
g1
(g2
tp30
Rp31
I100
g1
(g2
tp32
Rp33
I1000
g1
(g2
tp34
Rp35
I16
g1
(g2
tp36
Rp37
I0
g1
(g2
tp38
Rp39
I1
(lp40
F900979830047435.6
aF12868726340318.916
aF9993474792800.436
aF471177962288.7066
aF651647468656.9027
aF520634324118.4285
aF32842438724.890076
aF20938475820.682465
aF8482179448.570901
aF364887191.19609165
aF1890590292.6839192
aF286264266.0608506
aF25602876.908152997
aF31152130.59226564
aF326274.6540532245
aF4295527.173307721
aF1656919.5260911637
aF64153.47274479051
aF195254.35187410036
aF64183.35812514893
aF61943.227942470905
aF60876.627426316765
aF53918.316312583534
aF54045.909801508395
aF53811.04029705244
aF53638.14955686837
aF53656.426784493735
aF53646.091847493466
aF53639.821333760396
aF53660.98352210796
aF53657.548989422205
aF53655.91724612616
aF53640.062608589935
aF53640.30366665603
aF53647.81540656553
aF53650.652857453795
aF53646.33241888346
aF53645.09927547924
aF53640.991287297926
aF53642.60738035356
aF53639.691010522765
aF53647.6760728544
aF53641.65529231276
aF53644.0021425066
aF53646.53673530273
aF53642.4034167435
aF53640.5406797963
aF53642.268617880705
aF53642.656949035736
aF53639.1223402324
aF53645.027696971694
aF53644.55599726259
aF53641.571938462264
aF53642.8119451561
aF53640.66196666276
aF53662.8789637447
aF53654.639171849565
aF53637.084680213
aF53637.2314508023
aF53639.545528055074
aF53641.99240644277
aF53639.45377840533
aF53648.30972335863
aF53641.588211409806
aF53638.10045601596
aF53647.6323036927
aF53650.6578116175
aF53650.25461441293
aF53642.76308093986
aF53668.20293825493
aF53642.37375948353
aF53639.01785766136
aF53644.73764858493
aF53653.97618805913
aF53649.80795049153
aF53648.276133623265
aF53639.05640574653
aF53641.8350344082
aF53642.3791124782
aF53638.65392829737
aF53648.389395778766
aF53641.2099850387
aF53659.912993034326
aF53647.657934460905
aF53640.62418564069
aF53641.45082521706
aF53645.8971540452
aF53647.19055573977
aF53648.55164654943
aF53641.239295401436
aF53641.836527009036
aF53635.9601001993
aF53639.321028421604
aF53642.192888269
aF53645.84125389733
aF53644.23050066797
aF53654.425043848205
aF53640.83869078094
aF53653.03442807613
aF53662.862121767335
assssssag1
(g2
tp41
Rp42
g5
g1
(g2
tp43
Rp44
I100
g1
(g2
tp45
Rp46
I1000
g1
(g2
tp47
Rp48
I16
g1
(g2
tp49
Rp50
I0
g1
(g2
tp51
Rp52
I1
(lp53
F0.025177113066666663
aF0.08974800756666668
aF0.10932660103333332
aF0.12913581233333335
aF0.14911715686666668
aF0.16885058583333334
aF0.1889006297
aF0.20924507576666665
aF0.2296401759
aF0.24915474653333333
aF0.26910488306666663
aF0.289023906
aF0.3089016179333333
aF0.3292632003666667
aF0.3497826556666667
aF0.3698030909
aF0.3900531232333333
aF0.4107916553666667
aF0.4308112164666667
aF0.4514422218
aF0.47183708350000003
aF0.49191566310000007
aF0.5119769573333334
aF0.5311889449666666
aF0.5508674184333333
aF0.5721167723333332
aF0.5918583273666668
aF0.6114636858333333
aF0.6312323212666667
aF0.6510550578333333
aF0.6710207462333333
aF0.6910363038333333
aF0.7113094131
aF0.7318514983000001
aF0.7522799571333333
aF0.7727154294666666
aF0.7924428184666668
aF0.8121670683333333
aF0.8324041962333334
aF0.8528517683333333
aF0.8732208808333333
aF0.8942773342
aF0.9145990213
aF0.9343320925999999
aF0.9546287059666666
aF0.9749148686666667
aF0.9952334165666668
aF1.0159515937333332
aF1.036454161
aF1.0563535292666666
aF1.0764521757666667
aF1.0968833764333332
aF1.1172181765333333
aF1.137746652
aF1.1580459277
aF1.1784225702333335
aF1.1982297897333334
aF1.2175709804000001
aF1.2370740572666667
aF1.2572424014666668
aF1.2781018813333334
aF1.2982432444666667
aF1.3187194267666669
aF1.3387473424000003
aF1.3582261800666666
aF1.3784739176333334
aF1.3986931642
aF1.4190453291
aF1.4392574628333332
aF1.4599620104
aF1.4808163245333335
aF1.5013442834
aF1.5213595231666668
aF1.541101257
aF1.5609856844
aF1.5810080369333335
aF1.6009299358
aF1.6210605303333334
aF1.6431032419333336
aF1.6632262071333335
aF1.6826467911333334
aF1.7021826903
aF1.7225528558
aF1.7432696819000002
aF1.7636930147666667
aF1.7836184501999999
aF1.8040908178
aF1.8242103258666666
aF1.843959649433333
aF1.8637138207666668
aF1.8835322857
aF1.9039561748333333
aF1.9249179363333333
aF1.9451566537333331
aF1.9654930432666664
aF1.9860106309333334
aF2.0065162181666665
aF2.0267648697000005
aF2.047501881933333
aF2.0680965582333335
assssssg17
g1
(g2
tp54
Rp55
I100
g1
(g2
tp56
Rp57
I1000
g1
(g2
tp58
Rp59
I16
g1
(g2
tp60
Rp61
I0
g1
(g2
tp62
Rp63
I1
(lp64
F0.0251355196
aF0.07628366846666666
aF0.09755779556666666
aF0.11844940236666666
aF0.139516746
aF0.1587549249
aF0.17921439313333334
aF0.1994131406
aF0.2203937918
aF0.2411634028
aF0.2613568504666667
aF0.28091652196666667
aF0.30126639206666667
aF0.3221316337666667
aF0.3432280023666667
aF0.36456417043333333
aF0.3844159543666667
aF0.4062244991333334
aF0.42714787523333336
aF0.44737968840000003
aF0.46755095323333334
aF0.4875724117
aF0.5081043839333333
aF0.5283115903666666
aF0.5478975971333333
aF0.5678054491666666
aF0.5874164104333334
aF0.6075494687000002
aF0.6282746593
aF0.6489723126000001
aF0.6689154704333333
aF0.6893903216
aF0.7091946800666667
aF0.7292081713666666
aF0.7487435937
aF0.7686782876666666
aF0.7889618078999999
aF0.8090005914333332
aF0.828551511
aF0.8487721879999999
aF0.8686347405333334
aF0.8889383475
aF0.9093347390333334
aF0.9292343854666667
aF0.9491238593999999
aF0.9690281153
aF0.9889762799
aF1.0087820291666667
aF1.0291037559666667
aF1.0490168730333334
aF1.0688372453
aF1.0883873701000002
aF1.1089208921
aF1.1292134125666666
aF1.1490005652
aF1.1684730450333334
aF1.1884839932333333
aF1.2085393667
aF1.2284532785333333
aF1.2486194769333334
aF1.2693266868333335
aF1.2891545693
aF1.3091267744666666
aF1.3296495676
aF1.3494675556999998
aF1.3698871930333334
aF1.3902647892666666
aF1.4100966453666668
aF1.4301969210333334
aF1.4502209424999999
aF1.4700783491000002
aF1.4899227619333333
aF1.5099883477000002
aF1.5298348665333332
aF1.5503938992666668
aF1.5704989830666667
aF1.5906236569
aF1.6108160416
aF1.6310959259666664
aF1.65115273
aF1.6712749004333334
aF1.6911077499333331
aF1.7113455931333332
aF1.7321133613666666
aF1.7522803942333336
aF1.7729366620333333
aF1.7923796177
aF1.8119568030000002
aF1.8316241105666666
aF1.8519987265333333
aF1.8731455008333333
aF1.8940812746666669
aF1.9165933926666667
aF1.9361334641666665
aF1.9559723536333333
aF1.9758958816666665
aF1.9957699775666669
aF2.015787522
aF2.0356951554666667
aF2.0554059346666667
assssssg29
g1
(g2
tp65
Rp66
I100
g1
(g2
tp67
Rp68
I1000
g1
(g2
tp69
Rp70
I16
g1
(g2
tp71
Rp72
I0
g1
(g2
tp73
Rp74
I1
(lp75
F0.07509430993333333
aF0.1185666174
aF0.13905668256666667
aF0.15930213533333334
aF0.17897333703333337
aF0.19854254526666668
aF0.21882121763333331
aF0.23877082266666663
aF0.25831494726666665
aF0.27804480989999997
aF0.2978287041
aF0.31740936636666667
aF0.33680943646666667
aF0.3626078864
aF0.3822709222666667
aF0.40205449860000003
aF0.4254511594666666
aF0.4443918665
aF0.46461651723333336
aF0.48389796413333336
aF0.5035874545666666
aF0.5229827761666667
aF0.5424046516666667
aF0.5617810090666667
aF0.5822059512000001
aF0.6017079551666668
aF0.6212380528333333
aF0.6407863299333333
aF0.6604041656
aF0.6799558202333333
aF0.7242355148000001
aF0.7545808156333332
aF0.7741816242333334
aF0.7942856947333334
aF0.8138247132333333
aF0.8326602578333334
aF0.8523846467
aF0.8787661393333334
aF0.8986015319666666
aF0.9219263394666667
aF0.9421376189
aF0.9621684153666666
aF0.9820102850333333
aF1.0016962687333333
aF1.0212384462
aF1.0414416790333334
aF1.0616551637666667
aF1.0808753967333333
aF1.1006254752333333
aF1.1208751201666667
aF1.1404003302333334
aF1.1598180532333333
aF1.1794209877333335
aF1.1993983983999998
aF1.2191558678999999
aF1.2385613918
aF1.2580330372
aF1.2781787316
aF1.2983531951666667
aF1.3176568746666666
aF1.3426868915333336
aF1.3628946543
aF1.3830189705000002
aF1.4073967536333332
aF1.4275672833000002
aF1.4470945597
aF1.4667351245666669
aF1.4863584438666668
aF1.5060210625000001
aF1.5261405706333335
aF1.5461230675333333
aF1.5660764773333333
aF1.585585037866667
aF1.6052393118333335
aF1.6249072551666668
aF1.6446495850999998
aF1.6642537117
aF1.6840751171
aF1.7033641735333334
aF1.7231674194333335
aF1.7429699897666666
aF1.7627098957999998
aF1.7825792630333333
aF1.8018898169
aF1.8218201796333335
aF1.8420115312
aF1.8619678815333334
aF1.8811930020666667
aF1.9011442661333333
aF1.9212357203000001
aF1.9413676262
aF1.9615365664000002
aF1.9807495276333331
aF2.0002384186
aF2.0302755832666666
aF2.0534132321666667
aF2.073645909633333
aF2.0936421553
aF2.1138938268
aF2.1339003245000003
assssssag1
(g2
tp76
Rp77
g5
g1
(g2
tp78
Rp79
I100
g1
(g2
tp80
Rp81
I1000
g1
(g2
tp82
Rp83
I16
g1
(g2
tp84
Rp85
I0
g1
(g2
tp86
Rp87
I1
(lp88
F4.18e-07
aF0.06457142533333333
aF0.08415005603333332
aF0.1039592574
aF0.12394061436666666
aF0.1436739763
aF0.16372409463333334
aF0.1840685308
aF0.20446356636666665
aF0.22397819163333335
aF0.2439283381
aF0.2638473411333333
aF0.2837250530666667
aF0.3040866355
aF0.32460609079999997
aF0.3446265260333334
aF0.36487655836666666
aF0.3856150905333333
aF0.40563467143333337
aF0.42626567683333333
aF0.4466605385
aF0.4667390982
aF0.48680047193333337
aF0.5060123801
aF0.5256908535666667
aF0.5469401677666667
aF0.5666817625333334
aF0.586287121
aF0.6060557564
aF0.6258784929666666
aF0.6458442211
aF0.6658597389666666
aF0.6861327688
aF0.7066748936999999
aF0.7271033128000001
aF0.7475388249
aF0.7672662139
aF0.7869905034666665
aF0.8072275916666666
aF0.8276751637666667
aF0.8480443556999999
aF0.8691007693666667
aF0.8894224564333334
aF0.9091555277666666
aF0.9294521411333333
aF0.9497382640666666
aF0.9700568914333333
aF0.9907749096666666
aF1.0112777153333334
aF1.0311770041666666
aF1.0512757301
aF1.0717068512999999
aF1.0920416514
aF1.1125701268666666
aF1.1328693231
aF1.1532460451
aF1.1730531851333332
aF1.1923944552999999
aF1.2118974526666666
aF1.2320657968666666
aF1.2529254357
aF1.2730665604333333
aF1.2935428222
aF1.3135707378333332
aF1.3330496549666666
aF1.3532973130666666
aF1.3735166390666667
aF1.3938688039666667
aF1.4140809376999999
aF1.4347854852666666
aF1.4556398789000002
aF1.4761676788333336
aF1.4961829980333334
aF1.5159247319
aF1.5358091592666667
aF1.5558314323333333
aF1.5757534106666666
aF1.5958839257666666
aF1.6179266373333334
aF1.6380496820000001
aF1.6574701865333334
aF1.6770060856999998
aF1.6973762512333332
aF1.7180930773333334
aF1.7385164896666667
aF1.7584419250333332
aF1.7789141337
aF1.7990336418333335
aF1.8187832037666667
aF1.8385372162
aF1.8583557605666667
aF1.8787796497333333
aF1.8997414112
aF1.9199802875333332
aF1.9403163592
aF1.9608341058
aF1.9813396930666667
aF2.0015883445666667
aF2.0223255157333333
aF2.0429200331333335
assssssg17
g1
(g2
tp89
Rp90
I100
g1
(g2
tp91
Rp92
I1000
g1
(g2
tp93
Rp94
I16
g1
(g2
tp95
Rp96
I0
g1
(g2
tp97
Rp98
I1
(lp99
F3.7466666666666663e-07
aF0.0511485177
aF0.07242273786666667
aF0.09331428013333333
aF0.11438169576666667
aF0.13361985483333333
aF0.15407933296666668
aF0.1742780904
aF0.19525871179999998
aF0.21602832279999998
aF0.2362217754
aF0.2557814618
aF0.27613133193333333
aF0.296996514
aF0.3180929422666667
aF0.3394290506666667
aF0.35928087433333333
aF0.3810893793666667
aF0.40201279520000005
aF0.42224460836666666
aF0.44241587323333337
aF0.4624372919333333
aF0.48296934366666666
aF0.5031765103333333
aF0.5227625966
aF0.5426704486333334
aF0.5622813701666667
aF0.5824143091999999
aF0.6031394998
aF0.6238372325666667
aF0.6437804301666666
aF0.6642552415666667
aF0.6840595603
aF0.7040730516
aF0.7236085136666667
aF0.7435432076333334
aF0.7638266881333333
aF0.7838655908666666
aF0.8034164309666667
aF0.8236371477333334
aF0.8434997002333334
aF0.863803188
aF0.8841996590333333
aF0.9040993054333333
aF0.9239888985666665
aF0.9438930750000001
aF0.9638412396333332
aF0.9836468299333333
aF1.0039686362
aF1.023881753333333
aF1.0437021255666667
aF1.0632523298333334
aF1.0837857723333333
aF1.1040782928666666
aF1.1238656043666666
aF1.1433380047666666
aF1.1633488734666668
aF1.1834042469666668
aF1.2033183177333333
aF1.2234844367
aF1.2441915671
aF1.2640195290333331
aF1.2839917342
aF1.3045145273
aF1.3243325154
aF1.3447520732666665
aF1.3651297489666667
aF1.3849614461333335
aF1.4050618012666665
aF1.4250858227333334
aF1.4449432293333333
aF1.4647877216333332
aF1.4848533074333332
aF1.5046998262333335
aF1.5252589385000002
aF1.5453639427666668
aF1.5654886166
aF1.5856810013333333
aF1.6059608062
aF1.6260176102333332
aF1.6461395422666667
aF1.6659726302
aF1.6862104733666665
aF1.7069781621333335
aF1.7271452744666667
aF1.7478015423000002
aF1.7672444979666666
aF1.7868216832333335
aF1.8064891497333333
aF1.8268636068
aF1.8480104605333334
aF1.8689463933333332
aF1.8914580345
aF1.9109984239
aF1.9308373133333332
aF1.9507608413666668
aF1.9706347783333333
aF1.9906523227666666
aF2.0105601152
aF2.030270735433333
assssssg29
g1
(g2
tp100
Rp101
I100
g1
(g2
tp102
Rp103
I1000
g1
(g2
tp104
Rp105
I16
g1
(g2
tp106
Rp107
I0
g1
(g2
tp108
Rp109
I1
(lp110
F3.813333333333333e-07
aF0.043472711
aF0.0639628023
aF0.08420825253333335
aF0.10387943933333334
aF0.12344864756666667
aF0.14372733236666665
aF0.1636769374
aF0.18322106203333335
aF0.20295094453333332
aF0.22273482383333332
aF0.2423154811
aF0.2617155512
aF0.2875139812666667
aF0.307177037
aF0.3269606133333333
aF0.35035729406666666
aF0.36929798126666663
aF0.38952263196666664
aF0.4088039894666667
aF0.4284935494
aF0.44788889093333334
aF0.4673107465333333
aF0.4866871039
aF0.5071120063333333
aF0.5266140897999999
aF0.5461441874666666
aF0.5656924247666667
aF0.5853102604666667
aF0.6048619151333333
aF0.6491416097
aF0.6794869502333333
aF0.6990877191333333
aF0.7191917896333333
aF0.7387308478666667
aF0.7575663924333332
aF0.7772907813666666
aF0.8036722739666667
aF0.8235076666
aF0.8468324343666667
aF0.8670437137333334
aF0.8870745102666667
aF0.9069163799333334
aF0.9266023635999999
aF0.9461446205666667
aF0.9663478533333333
aF0.9865612586333334
aF1.0057814916
aF1.0255316495999998
aF1.0457812945333333
aF1.0653064250666666
aF1.0847241481333334
aF1.1043271621333333
aF1.1243044932666666
aF1.1440619627666668
aF1.1634674866999999
aF1.1829392115
aF1.2030848264333331
aF1.223259449
aF1.2425630489666668
aF1.2675929069666667
aF1.2878007491333332
aF1.3079250653333334
aF1.3323029279666665
aF1.3524733782
aF1.3720006545333334
aF1.3916412194333334
aF1.4112646182333333
aF1.4309270778999998
aF1.4510468244666666
aF1.4710291624
aF1.4909826517000002
aF1.5104912122
aF1.5301454861666668
aF1.5498133500333333
aF1.5695556799666666
aF1.5891597271
aF1.6089812119999998
aF1.6282702684333332
aF1.6480734348333332
aF1.6678761641333335
aF1.6876159906333335
aF1.7074853579333336
aF1.7267959118
aF1.7467263539666666
aF1.7669177055333334
aF1.7868739763666668
aF1.8060990969666666
aF1.8260504404666669
aF1.8461418152
aF1.866273879966667
aF1.8864428202333334
aF1.9056557814333335
aF1.9251445134666667
aF1.9551816781333333
aF1.9783193270666668
aF1.9985518455666667
aF2.0185482502
aF2.038799921666667
aF2.0588065783333334
assssssa.